Archive member included because of file (symbol)

c:/programdata/matlab/supportpackages/r2020b/3p.instrset/arduinoide.instrset/tools/arm-none-eabi-gcc/4.8.3-2014q1/bin/../lib/gcc/arm-none-eabi/4.8.3/../../../../arm-none-eabi/lib/armv6-m\libm.a(lib_a-w_fmod.o)
                              xcp_ext_common.o (fmod)
c:/programdata/matlab/supportpackages/r2020b/3p.instrset/arduinoide.instrset/tools/arm-none-eabi-gcc/4.8.3-2014q1/bin/../lib/gcc/arm-none-eabi/4.8.3/../../../../arm-none-eabi/lib/armv6-m\libm.a(lib_a-e_fmod.o)
                              c:/programdata/matlab/supportpackages/r2020b/3p.instrset/arduinoide.instrset/tools/arm-none-eabi-gcc/4.8.3-2014q1/bin/../lib/gcc/arm-none-eabi/4.8.3/../../../../arm-none-eabi/lib/armv6-m\libm.a(lib_a-w_fmod.o) (__ieee754_fmod)
c:/programdata/matlab/supportpackages/r2020b/3p.instrset/arduinoide.instrset/tools/arm-none-eabi-gcc/4.8.3-2014q1/bin/../lib/gcc/arm-none-eabi/4.8.3/../../../../arm-none-eabi/lib/armv6-m\libm.a(lib_a-s_fpclassify.o)
                              c:/programdata/matlab/supportpackages/r2020b/3p.instrset/arduinoide.instrset/tools/arm-none-eabi-gcc/4.8.3-2014q1/bin/../lib/gcc/arm-none-eabi/4.8.3/../../../../arm-none-eabi/lib/armv6-m\libm.a(lib_a-w_fmod.o) (__fpclassifyd)
c:/programdata/matlab/supportpackages/r2020b/3p.instrset/arduinoide.instrset/tools/arm-none-eabi-gcc/4.8.3-2014q1/bin/../lib/gcc/arm-none-eabi/4.8.3/../../../../arm-none-eabi/lib/armv6-m\libm.a(lib_a-s_lib_ver.o)
                              c:/programdata/matlab/supportpackages/r2020b/3p.instrset/arduinoide.instrset/tools/arm-none-eabi-gcc/4.8.3-2014q1/bin/../lib/gcc/arm-none-eabi/4.8.3/../../../../arm-none-eabi/lib/armv6-m\libm.a(lib_a-w_fmod.o) (__fdlib_version)
c:/programdata/matlab/supportpackages/r2020b/3p.instrset/arduinoide.instrset/tools/arm-none-eabi-gcc/4.8.3-2014q1/bin/../lib/gcc/arm-none-eabi/4.8.3/../../../../arm-none-eabi/lib/armv6-m\libm.a(lib_a-s_matherr.o)
                              c:/programdata/matlab/supportpackages/r2020b/3p.instrset/arduinoide.instrset/tools/arm-none-eabi-gcc/4.8.3-2014q1/bin/../lib/gcc/arm-none-eabi/4.8.3/../../../../arm-none-eabi/lib/armv6-m\libm.a(lib_a-w_fmod.o) (matherr)
C:/Users/Ege/DOCUME~1/MATLAB/R2020b/ARDUIN~1/ARDUIN~1/FASTER~2\libcore.a(cortex_handlers.o)
                              (Reset_Handler)
C:/Users/Ege/DOCUME~1/MATLAB/R2020b/ARDUIN~1/ARDUIN~1/FASTER~2\libcore.a(hooks.o)
                              C:/Users/Ege/DOCUME~1/MATLAB/R2020b/ARDUIN~1/ARDUIN~1/FASTER~2\libcore.a(cortex_handlers.o) (sysTickHook)
C:/Users/Ege/DOCUME~1/MATLAB/R2020b/ARDUIN~1/ARDUIN~1/FASTER~2\libcore.a(delay.o)
                              io_wrappers.o (millis)
C:/Users/Ege/DOCUME~1/MATLAB/R2020b/ARDUIN~1/ARDUIN~1/FASTER~2\libcore.a(startup.o)
                              C:/Users/Ege/DOCUME~1/MATLAB/R2020b/ARDUIN~1/ARDUIN~1/FASTER~2\libcore.a(cortex_handlers.o) (SystemInit)
C:/Users/Ege/DOCUME~1/MATLAB/R2020b/ARDUIN~1/ARDUIN~1/FASTER~2\libcore.a(wiring.o)
                              ert_main.o (init)
C:/Users/Ege/DOCUME~1/MATLAB/R2020b/ARDUIN~1/ARDUIN~1/FASTER~2\libcore.a(wiring_analog.o)
                              C:/Users/Ege/DOCUME~1/MATLAB/R2020b/ARDUIN~1/ARDUIN~1/FASTER~2\libcore.a(wiring.o) (analogReference)
C:/Users/Ege/DOCUME~1/MATLAB/R2020b/ARDUIN~1/ARDUIN~1/FASTER~2\libcore.a(wiring_digital.o)
                              MW_PWM.o (pinMode)
C:/Users/Ege/DOCUME~1/MATLAB/R2020b/ARDUIN~1/ARDUIN~1/FASTER~2\libcore.a(wiring_private.o)
                              MW_PWMDriver.o (pinPeripheral)
C:/Users/Ege/DOCUME~1/MATLAB/R2020b/ARDUIN~1/ARDUIN~1/FASTER~2\libcore.a(Reset.o)
                              C:/Users/Ege/DOCUME~1/MATLAB/R2020b/ARDUIN~1/ARDUIN~1/FASTER~2\libcore.a(delay.o) (tickReset)
C:/Users/Ege/DOCUME~1/MATLAB/R2020b/ARDUIN~1/ARDUIN~1/FASTER~2\libcore.a(Uart.o)
                              io_wrappers.o (Uart::begin(unsigned long))
C:/Users/Ege/DOCUME~1/MATLAB/R2020b/ARDUIN~1/ARDUIN~1/FASTER~2\libcore.a(CDC.o)
                              rtiostream_serial_daemon.o (Serial_::available())
C:/Users/Ege/DOCUME~1/MATLAB/R2020b/ARDUIN~1/ARDUIN~1/FASTER~2\libcore.a(PluggableUSB.o)
                              C:/Users/Ege/DOCUME~1/MATLAB/R2020b/ARDUIN~1/ARDUIN~1/FASTER~2\libcore.a(CDC.o) (PluggableUSB_::plug(PluggableUSBModule*))
C:/Users/Ege/DOCUME~1/MATLAB/R2020b/ARDUIN~1/ARDUIN~1/FASTER~2\libcore.a(USBCore.o)
                              io_wrappers.o (USBDeviceClass::init())
C:/Users/Ege/DOCUME~1/MATLAB/R2020b/ARDUIN~1/ARDUIN~1/FASTER~2\libcore.a(variant.o)
                              io_wrappers.o (Serial1)
C:/Users/Ege/DOCUME~1/MATLAB/R2020b/ARDUIN~1/ARDUIN~1/FASTER~2\libcore.a(abi.o)
                              C:/Users/Ege/DOCUME~1/MATLAB/R2020b/ARDUIN~1/ARDUIN~1/FASTER~2\libcore.a(Uart.o) (__cxa_pure_virtual)
C:/Users/Ege/DOCUME~1/MATLAB/R2020b/ARDUIN~1/ARDUIN~1/FASTER~2\libcore.a(new.o)
                              C:/Users/Ege/DOCUME~1/MATLAB/R2020b/ARDUIN~1/ARDUIN~1/FASTER~2\libcore.a(USBCore.o) (operator new(unsigned int))
C:/Users/Ege/DOCUME~1/MATLAB/R2020b/ARDUIN~1/ARDUIN~1/FASTER~2\libcore.a(Print.o)
                              C:/Users/Ege/DOCUME~1/MATLAB/R2020b/ARDUIN~1/ARDUIN~1/FASTER~2\libcore.a(Uart.o) (Print::write(unsigned char const*, unsigned int))
C:/Users/Ege/DOCUME~1/MATLAB/R2020b/ARDUIN~1/ARDUIN~1/FASTER~2\libcore.a(SERCOM.o)
                              C:/Users/Ege/DOCUME~1/MATLAB/R2020b/ARDUIN~1/ARDUIN~1/FASTER~2\libcore.a(variant.o) (SERCOM::SERCOM(Sercom*))
c:/programdata/matlab/supportpackages/r2020b/3p.instrset/arduinoide.instrset/tools/arm-none-eabi-gcc/4.8.3-2014q1/bin/../lib/gcc/arm-none-eabi/4.8.3/armv6-m\libgcc.a(_thumb1_case_uqi.o)
                              xcp_ext_classic_trigger.o (__gnu_thumb1_case_uqi)
c:/programdata/matlab/supportpackages/r2020b/3p.instrset/arduinoide.instrset/tools/arm-none-eabi-gcc/4.8.3-2014q1/bin/../lib/gcc/arm-none-eabi/4.8.3/armv6-m\libgcc.a(_udivsi3.o)
                              C:/Users/Ege/DOCUME~1/MATLAB/R2020b/ARDUIN~1/ARDUIN~1/FASTER~2\libcore.a(wiring.o) (__aeabi_uidiv)
c:/programdata/matlab/supportpackages/r2020b/3p.instrset/arduinoide.instrset/tools/arm-none-eabi-gcc/4.8.3-2014q1/bin/../lib/gcc/arm-none-eabi/4.8.3/armv6-m\libgcc.a(_divsi3.o)
                              C:/Users/Ege/DOCUME~1/MATLAB/R2020b/ARDUIN~1/ARDUIN~1/FASTER~2\libcore.a(SERCOM.o) (__aeabi_idiv)
c:/programdata/matlab/supportpackages/r2020b/3p.instrset/arduinoide.instrset/tools/arm-none-eabi-gcc/4.8.3-2014q1/bin/../lib/gcc/arm-none-eabi/4.8.3/armv6-m\libgcc.a(_dvmd_tls.o)
                              c:/programdata/matlab/supportpackages/r2020b/3p.instrset/arduinoide.instrset/tools/arm-none-eabi-gcc/4.8.3-2014q1/bin/../lib/gcc/arm-none-eabi/4.8.3/armv6-m\libgcc.a(_udivsi3.o) (__aeabi_idiv0)
c:/programdata/matlab/supportpackages/r2020b/3p.instrset/arduinoide.instrset/tools/arm-none-eabi-gcc/4.8.3-2014q1/bin/../lib/gcc/arm-none-eabi/4.8.3/armv6-m\libgcc.a(_arm_cmpdf2.o)
                              xcp_ext_work.o (__aeabi_dcmpeq)
c:/programdata/matlab/supportpackages/r2020b/3p.instrset/arduinoide.instrset/tools/arm-none-eabi-gcc/4.8.3-2014q1/bin/../lib/gcc/arm-none-eabi/4.8.3/armv6-m\libgcc.a(_fixunsdfsi.o)
                              MW_PWM.o (__aeabi_d2uiz)
c:/programdata/matlab/supportpackages/r2020b/3p.instrset/arduinoide.instrset/tools/arm-none-eabi-gcc/4.8.3-2014q1/bin/../lib/gcc/arm-none-eabi/4.8.3/armv6-m\libgcc.a(adddf3.o)
                              xcp_ext_common.o (__aeabi_dadd)
c:/programdata/matlab/supportpackages/r2020b/3p.instrset/arduinoide.instrset/tools/arm-none-eabi-gcc/4.8.3-2014q1/bin/../lib/gcc/arm-none-eabi/4.8.3/armv6-m\libgcc.a(divdf3.o)
                              xcp_ext_common.o (__aeabi_ddiv)
c:/programdata/matlab/supportpackages/r2020b/3p.instrset/arduinoide.instrset/tools/arm-none-eabi-gcc/4.8.3-2014q1/bin/../lib/gcc/arm-none-eabi/4.8.3/armv6-m\libgcc.a(eqdf2.o)
                              c:/programdata/matlab/supportpackages/r2020b/3p.instrset/arduinoide.instrset/tools/arm-none-eabi-gcc/4.8.3-2014q1/bin/../lib/gcc/arm-none-eabi/4.8.3/armv6-m\libgcc.a(_arm_cmpdf2.o) (__eqdf2)
c:/programdata/matlab/supportpackages/r2020b/3p.instrset/arduinoide.instrset/tools/arm-none-eabi-gcc/4.8.3-2014q1/bin/../lib/gcc/arm-none-eabi/4.8.3/armv6-m\libgcc.a(gedf2.o)
                              c:/programdata/matlab/supportpackages/r2020b/3p.instrset/arduinoide.instrset/tools/arm-none-eabi-gcc/4.8.3-2014q1/bin/../lib/gcc/arm-none-eabi/4.8.3/armv6-m\libgcc.a(_arm_cmpdf2.o) (__gedf2)
c:/programdata/matlab/supportpackages/r2020b/3p.instrset/arduinoide.instrset/tools/arm-none-eabi-gcc/4.8.3-2014q1/bin/../lib/gcc/arm-none-eabi/4.8.3/armv6-m\libgcc.a(ledf2.o)
                              c:/programdata/matlab/supportpackages/r2020b/3p.instrset/arduinoide.instrset/tools/arm-none-eabi-gcc/4.8.3-2014q1/bin/../lib/gcc/arm-none-eabi/4.8.3/armv6-m\libgcc.a(_arm_cmpdf2.o) (__ledf2)
c:/programdata/matlab/supportpackages/r2020b/3p.instrset/arduinoide.instrset/tools/arm-none-eabi-gcc/4.8.3-2014q1/bin/../lib/gcc/arm-none-eabi/4.8.3/armv6-m\libgcc.a(muldf3.o)
                              physicalmotortest.o (__aeabi_dmul)
c:/programdata/matlab/supportpackages/r2020b/3p.instrset/arduinoide.instrset/tools/arm-none-eabi-gcc/4.8.3-2014q1/bin/../lib/gcc/arm-none-eabi/4.8.3/armv6-m\libgcc.a(subdf3.o)
                              physicalmotortest.o (__aeabi_dsub)
c:/programdata/matlab/supportpackages/r2020b/3p.instrset/arduinoide.instrset/tools/arm-none-eabi-gcc/4.8.3-2014q1/bin/../lib/gcc/arm-none-eabi/4.8.3/armv6-m\libgcc.a(fixdfsi.o)
                              c:/programdata/matlab/supportpackages/r2020b/3p.instrset/arduinoide.instrset/tools/arm-none-eabi-gcc/4.8.3-2014q1/bin/../lib/gcc/arm-none-eabi/4.8.3/armv6-m\libgcc.a(_fixunsdfsi.o) (__aeabi_d2iz)
c:/programdata/matlab/supportpackages/r2020b/3p.instrset/arduinoide.instrset/tools/arm-none-eabi-gcc/4.8.3-2014q1/bin/../lib/gcc/arm-none-eabi/4.8.3/armv6-m\libgcc.a(floatunsidf.o)
                              physicalmotortest.o (__aeabi_ui2d)
c:/programdata/matlab/supportpackages/r2020b/3p.instrset/arduinoide.instrset/tools/arm-none-eabi-gcc/4.8.3-2014q1/bin/../lib/gcc/arm-none-eabi/4.8.3/armv6-m\libgcc.a(_clzsi2.o)
                              c:/programdata/matlab/supportpackages/r2020b/3p.instrset/arduinoide.instrset/tools/arm-none-eabi-gcc/4.8.3-2014q1/bin/../lib/gcc/arm-none-eabi/4.8.3/armv6-m\libgcc.a(adddf3.o) (__clzsi2)
c:/programdata/matlab/supportpackages/r2020b/3p.instrset/arduinoide.instrset/tools/arm-none-eabi-gcc/4.8.3-2014q1/bin/../lib/gcc/arm-none-eabi/4.8.3/../../../../arm-none-eabi/lib/armv6-m\libg_s.a(lib_a-errno.o)
                              c:/programdata/matlab/supportpackages/r2020b/3p.instrset/arduinoide.instrset/tools/arm-none-eabi-gcc/4.8.3-2014q1/bin/../lib/gcc/arm-none-eabi/4.8.3/../../../../arm-none-eabi/lib/armv6-m\libm.a(lib_a-w_fmod.o) (__errno)
c:/programdata/matlab/supportpackages/r2020b/3p.instrset/arduinoide.instrset/tools/arm-none-eabi-gcc/4.8.3-2014q1/bin/../lib/gcc/arm-none-eabi/4.8.3/../../../../arm-none-eabi/lib/armv6-m\libg_s.a(lib_a-exit.o)
                              c:/programdata/matlab/supportpackages/r2020b/3p.instrset/arduinoide.instrset/tools/arm-none-eabi-gcc/4.8.3-2014q1/bin/../lib/gcc/arm-none-eabi/4.8.3/../../../../arm-none-eabi/lib/armv6-m/crt0.o (exit)
c:/programdata/matlab/supportpackages/r2020b/3p.instrset/arduinoide.instrset/tools/arm-none-eabi-gcc/4.8.3-2014q1/bin/../lib/gcc/arm-none-eabi/4.8.3/../../../../arm-none-eabi/lib/armv6-m\libg_s.a(lib_a-impure.o)
                              c:/programdata/matlab/supportpackages/r2020b/3p.instrset/arduinoide.instrset/tools/arm-none-eabi-gcc/4.8.3-2014q1/bin/../lib/gcc/arm-none-eabi/4.8.3/../../../../arm-none-eabi/lib/armv6-m\libg_s.a(lib_a-exit.o) (_global_impure_ptr)
c:/programdata/matlab/supportpackages/r2020b/3p.instrset/arduinoide.instrset/tools/arm-none-eabi-gcc/4.8.3-2014q1/bin/../lib/gcc/arm-none-eabi/4.8.3/../../../../arm-none-eabi/lib/armv6-m\libg_s.a(lib_a-init.o)
                              c:/programdata/matlab/supportpackages/r2020b/3p.instrset/arduinoide.instrset/tools/arm-none-eabi-gcc/4.8.3-2014q1/bin/../lib/gcc/arm-none-eabi/4.8.3/../../../../arm-none-eabi/lib/armv6-m/crt0.o (__libc_init_array)
c:/programdata/matlab/supportpackages/r2020b/3p.instrset/arduinoide.instrset/tools/arm-none-eabi-gcc/4.8.3-2014q1/bin/../lib/gcc/arm-none-eabi/4.8.3/../../../../arm-none-eabi/lib/armv6-m\libg_s.a(lib_a-malloc.o)
                              C:/Users/Ege/DOCUME~1/MATLAB/R2020b/ARDUIN~1/ARDUIN~1/FASTER~2\libcore.a(USBCore.o) (malloc)
c:/programdata/matlab/supportpackages/r2020b/3p.instrset/arduinoide.instrset/tools/arm-none-eabi-gcc/4.8.3-2014q1/bin/../lib/gcc/arm-none-eabi/4.8.3/../../../../arm-none-eabi/lib/armv6-m\libg_s.a(lib_a-memcpy-stub.o)
                              MW_PWMDriver.o (memcpy)
c:/programdata/matlab/supportpackages/r2020b/3p.instrset/arduinoide.instrset/tools/arm-none-eabi-gcc/4.8.3-2014q1/bin/../lib/gcc/arm-none-eabi/4.8.3/../../../../arm-none-eabi/lib/armv6-m\libg_s.a(lib_a-memset.o)
                              c:/programdata/matlab/supportpackages/r2020b/3p.instrset/arduinoide.instrset/tools/arm-none-eabi-gcc/4.8.3-2014q1/bin/../lib/gcc/arm-none-eabi/4.8.3/../../../../arm-none-eabi/lib/armv6-m/crt0.o (memset)
c:/programdata/matlab/supportpackages/r2020b/3p.instrset/arduinoide.instrset/tools/arm-none-eabi-gcc/4.8.3-2014q1/bin/../lib/gcc/arm-none-eabi/4.8.3/../../../../arm-none-eabi/lib/armv6-m\libg_s.a(lib_a-nano-freer.o)
                              c:/programdata/matlab/supportpackages/r2020b/3p.instrset/arduinoide.instrset/tools/arm-none-eabi-gcc/4.8.3-2014q1/bin/../lib/gcc/arm-none-eabi/4.8.3/../../../../arm-none-eabi/lib/armv6-m\libg_s.a(lib_a-malloc.o) (_free_r)
c:/programdata/matlab/supportpackages/r2020b/3p.instrset/arduinoide.instrset/tools/arm-none-eabi-gcc/4.8.3-2014q1/bin/../lib/gcc/arm-none-eabi/4.8.3/../../../../arm-none-eabi/lib/armv6-m\libg_s.a(lib_a-nano-mallocr.o)
                              c:/programdata/matlab/supportpackages/r2020b/3p.instrset/arduinoide.instrset/tools/arm-none-eabi-gcc/4.8.3-2014q1/bin/../lib/gcc/arm-none-eabi/4.8.3/../../../../arm-none-eabi/lib/armv6-m\libg_s.a(lib_a-malloc.o) (_malloc_r)
c:/programdata/matlab/supportpackages/r2020b/3p.instrset/arduinoide.instrset/tools/arm-none-eabi-gcc/4.8.3-2014q1/bin/../lib/gcc/arm-none-eabi/4.8.3/../../../../arm-none-eabi/lib/armv6-m\libg_s.a(lib_a-sbrkr.o)
                              c:/programdata/matlab/supportpackages/r2020b/3p.instrset/arduinoide.instrset/tools/arm-none-eabi-gcc/4.8.3-2014q1/bin/../lib/gcc/arm-none-eabi/4.8.3/../../../../arm-none-eabi/lib/armv6-m\libg_s.a(lib_a-nano-mallocr.o) (_sbrk_r)
c:/programdata/matlab/supportpackages/r2020b/3p.instrset/arduinoide.instrset/tools/arm-none-eabi-gcc/4.8.3-2014q1/bin/../lib/gcc/arm-none-eabi/4.8.3/../../../../arm-none-eabi/lib/armv6-m\libg_s.a(lib_a-strlen.o)
                              C:/Users/Ege/DOCUME~1/MATLAB/R2020b/ARDUIN~1/ARDUIN~1/FASTER~2\libcore.a(USBCore.o) (strlen)
c:/programdata/matlab/supportpackages/r2020b/3p.instrset/arduinoide.instrset/tools/arm-none-eabi-gcc/4.8.3-2014q1/bin/../lib/gcc/arm-none-eabi/4.8.3/../../../../arm-none-eabi/lib/armv6-m\libg_s.a(lib_a-reent.o)
                              c:/programdata/matlab/supportpackages/r2020b/3p.instrset/arduinoide.instrset/tools/arm-none-eabi-gcc/4.8.3-2014q1/bin/../lib/gcc/arm-none-eabi/4.8.3/../../../../arm-none-eabi/lib/armv6-m\libg_s.a(lib_a-sbrkr.o) (errno)
c:/programdata/matlab/supportpackages/r2020b/3p.instrset/arduinoide.instrset/tools/arm-none-eabi-gcc/4.8.3-2014q1/bin/../lib/gcc/arm-none-eabi/4.8.3/../../../../arm-none-eabi/lib/armv6-m\libnosys.a(sbrk.o)
                              c:/programdata/matlab/supportpackages/r2020b/3p.instrset/arduinoide.instrset/tools/arm-none-eabi-gcc/4.8.3-2014q1/bin/../lib/gcc/arm-none-eabi/4.8.3/../../../../arm-none-eabi/lib/armv6-m\libg_s.a(lib_a-sbrkr.o) (_sbrk)
c:/programdata/matlab/supportpackages/r2020b/3p.instrset/arduinoide.instrset/tools/arm-none-eabi-gcc/4.8.3-2014q1/bin/../lib/gcc/arm-none-eabi/4.8.3/../../../../arm-none-eabi/lib/armv6-m\libnosys.a(_exit.o)
                              c:/programdata/matlab/supportpackages/r2020b/3p.instrset/arduinoide.instrset/tools/arm-none-eabi-gcc/4.8.3-2014q1/bin/../lib/gcc/arm-none-eabi/4.8.3/../../../../arm-none-eabi/lib/armv6-m\libg_s.a(lib_a-exit.o) (_exit)

Allocating common symbols
Common symbol       size              file

errno               0x4               c:/programdata/matlab/supportpackages/r2020b/3p.instrset/arduinoide.instrset/tools/arm-none-eabi-gcc/4.8.3-2014q1/bin/../lib/gcc/arm-none-eabi/4.8.3/../../../../arm-none-eabi/lib/armv6-m\libg_s.a(lib_a-reent.o)
runModel            0x1               ert_main.o
physicalmotortest_B
                    0x8               physicalmotortest.o
physicalmotortest_DW
                    0x1c              physicalmotortest.o
xcpDummyDoubleVariable
                    0x8               xcp_ext_common.o
stopRequested       0x1               ert_main.o

Discarded input sections

 .text          0x00000000        0x0 c:/programdata/matlab/supportpackages/r2020b/3p.instrset/arduinoide.instrset/tools/arm-none-eabi-gcc/4.8.3-2014q1/bin/../lib/gcc/arm-none-eabi/4.8.3/armv6-m/crti.o
 .data          0x00000000        0x0 c:/programdata/matlab/supportpackages/r2020b/3p.instrset/arduinoide.instrset/tools/arm-none-eabi-gcc/4.8.3-2014q1/bin/../lib/gcc/arm-none-eabi/4.8.3/armv6-m/crti.o
 .bss           0x00000000        0x0 c:/programdata/matlab/supportpackages/r2020b/3p.instrset/arduinoide.instrset/tools/arm-none-eabi-gcc/4.8.3-2014q1/bin/../lib/gcc/arm-none-eabi/4.8.3/armv6-m/crti.o
 .data          0x00000000        0x4 c:/programdata/matlab/supportpackages/r2020b/3p.instrset/arduinoide.instrset/tools/arm-none-eabi-gcc/4.8.3-2014q1/bin/../lib/gcc/arm-none-eabi/4.8.3/armv6-m/crtbegin.o
 .text          0x00000000       0x78 c:/programdata/matlab/supportpackages/r2020b/3p.instrset/arduinoide.instrset/tools/arm-none-eabi-gcc/4.8.3-2014q1/bin/../lib/gcc/arm-none-eabi/4.8.3/../../../../arm-none-eabi/lib/armv6-m/crt0.o
 .data          0x00000000        0x0 c:/programdata/matlab/supportpackages/r2020b/3p.instrset/arduinoide.instrset/tools/arm-none-eabi-gcc/4.8.3-2014q1/bin/../lib/gcc/arm-none-eabi/4.8.3/../../../../arm-none-eabi/lib/armv6-m/crt0.o
 .bss           0x00000000        0x0 c:/programdata/matlab/supportpackages/r2020b/3p.instrset/arduinoide.instrset/tools/arm-none-eabi-gcc/4.8.3-2014q1/bin/../lib/gcc/arm-none-eabi/4.8.3/../../../../arm-none-eabi/lib/armv6-m/crt0.o
 .ARM.extab     0x00000000        0x0 c:/programdata/matlab/supportpackages/r2020b/3p.instrset/arduinoide.instrset/tools/arm-none-eabi-gcc/4.8.3-2014q1/bin/../lib/gcc/arm-none-eabi/4.8.3/../../../../arm-none-eabi/lib/armv6-m/crt0.o
 .ARM.exidx     0x00000000        0x8 c:/programdata/matlab/supportpackages/r2020b/3p.instrset/arduinoide.instrset/tools/arm-none-eabi-gcc/4.8.3-2014q1/bin/../lib/gcc/arm-none-eabi/4.8.3/../../../../arm-none-eabi/lib/armv6-m/crt0.o
 .ARM.attributes
                0x00000000       0x1b c:/programdata/matlab/supportpackages/r2020b/3p.instrset/arduinoide.instrset/tools/arm-none-eabi-gcc/4.8.3-2014q1/bin/../lib/gcc/arm-none-eabi/4.8.3/../../../../arm-none-eabi/lib/armv6-m/crt0.o
 .text          0x00000000        0x0 MW_PWM.o
 .data          0x00000000        0x0 MW_PWM.o
 .bss           0x00000000        0x0 MW_PWM.o
 .text.MW_PWM_SetFrequency
                0x00000000        0x2 MW_PWM.o
 .text.MW_PWM_DisableNotification
                0x00000000        0x2 MW_PWM.o
 .text.MW_PWM_EnableNotification
                0x00000000        0x2 MW_PWM.o
 .text.MW_PWM_SetOutputToIdle
                0x00000000        0x2 MW_PWM.o
 .text.MW_PWM_GetOutputState
                0x00000000        0x4 MW_PWM.o
 .text.MW_PWM_Stop
                0x00000000        0x2 MW_PWM.o
 .text          0x00000000        0x0 MW_PWMDriver.o
 .data          0x00000000        0x0 MW_PWMDriver.o
 .bss           0x00000000        0x0 MW_PWMDriver.o
 .text          0x00000000        0x0 ArduinoPinHandleMap.o
 .data          0x00000000        0x0 ArduinoPinHandleMap.o
 .bss           0x00000000        0x0 ArduinoPinHandleMap.o
 .bss.analogPinHandleMap
                0x00000000        0x9 ArduinoPinHandleMap.o
 .text          0x00000000        0x0 xcp_ext_work.o
 .data          0x00000000        0x0 xcp_ext_work.o
 .bss           0x00000000        0x0 xcp_ext_work.o
 .text.rtExtModePauseIfNeeded
                0x00000000       0x44 xcp_ext_work.o
 .text.rtExtModeParseArgs
                0x00000000        0x2 xcp_ext_work.o
 .text          0x00000000        0x0 physicalmotortest.o
 .data          0x00000000        0x0 physicalmotortest.o
 .bss           0x00000000        0x0 physicalmotortest.o
 .text          0x00000000        0x0 physicalmotortest_data.o
 .data          0x00000000        0x0 physicalmotortest_data.o
 .bss           0x00000000        0x0 physicalmotortest_data.o
 .text          0x00000000        0x0 xcp_ext_common.o
 .data          0x00000000        0x0 xcp_ext_common.o
 .bss           0x00000000        0x0 xcp_ext_common.o
 .text.xcp_void_printf
                0x00000000        0x6 xcp_ext_common.o
 .text.xcpGetTimestamp
                0x00000000        0x4 xcp_ext_common.o
 COMMON         0x00000000        0x8 xcp_ext_common.o
 .text          0x00000000        0x0 xcp_ext_classic_trigger.o
 .data          0x00000000        0x0 xcp_ext_classic_trigger.o
 .bss           0x00000000        0x0 xcp_ext_classic_trigger.o
 .text          0x00000000        0x0 xcp.o
 .data          0x00000000        0x0 xcp.o
 .bss           0x00000000        0x0 xcp.o
 .text.xcpStatusGet
                0x00000000        0xc xcp.o
 .text.xcpSessionStatusSet
                0x00000000        0xc xcp.o
 .text.xcpResourceProtectionStatusSet
                0x00000000        0xc xcp.o
 .text.xcpResourceProtectionSetMask
                0x00000000       0x10 xcp.o
 .text.xcpResourceProtectionClearMask
                0x00000000       0x10 xcp.o
 .text.xcpSessionConfigurationIdSet
                0x00000000        0xc xcp.o
 .text.xcpEvent
                0x00000000       0x24 xcp.o
 .text.xcpEventNotificationReq
                0x00000000       0x80 xcp.o
 .text.xcpRemoteServiceReq
                0x00000000       0x80 xcp.o
 .text          0x00000000        0x0 xcp_standard.o
 .data          0x00000000        0x0 xcp_standard.o
 .bss           0x00000000        0x0 xcp_standard.o
 .text.xcpStandardSetPacketLookup
                0x00000000        0xc xcp_standard.o
 .text.xcpStandardExtendedInit
                0x00000000        0x2 xcp_standard.o
 .text.xcpStandardExtendedReset
                0x00000000        0x2 xcp_standard.o
 .text          0x00000000        0x0 xcp_daq.o
 .data          0x00000000        0x0 xcp_daq.o
 .bss           0x00000000        0x0 xcp_daq.o
 .text.xcpDaqSetPacketLookup
                0x00000000        0xc xcp_daq.o
 .text.xcpDaqExtendedInit
                0x00000000        0x2 xcp_daq.o
 .text.xcpDaqExtendedReset
                0x00000000        0x2 xcp_daq.o
 .text          0x00000000        0x0 xcp_calibration.o
 .data          0x00000000        0x0 xcp_calibration.o
 .bss           0x00000000        0x0 xcp_calibration.o
 .text.xcpCalibrationSetPacketLookup
                0x00000000        0xc xcp_calibration.o
 .text.xcpCalibrationExtendedInit
                0x00000000        0x2 xcp_calibration.o
 .text.xcpCalibrationExtendedReset
                0x00000000        0x2 xcp_calibration.o
 .text          0x00000000        0x0 xcp_fifo.o
 .data          0x00000000        0x0 xcp_fifo.o
 .bss           0x00000000        0x0 xcp_fifo.o
 .text.xcpFifoEmpty
                0x00000000        0xa xcp_fifo.o
 .text          0x00000000        0x0 xcp_transport.o
 .data          0x00000000        0x0 xcp_transport.o
 .bss           0x00000000        0x0 xcp_transport.o
 .text          0x00000000        0x0 xcp_mem_default.o
 .data          0x00000000        0x0 xcp_mem_default.o
 .bss           0x00000000        0x0 xcp_mem_default.o
 .text          0x00000000        0x0 xcp_drv_rtiostream.o
 .data          0x00000000        0x0 xcp_drv_rtiostream.o
 .bss           0x00000000        0x0 xcp_drv_rtiostream.o
 .text          0x00000000        0x0 xcp_frame_serial.o
 .data          0x00000000        0x0 xcp_frame_serial.o
 .bss           0x00000000        0x0 xcp_frame_serial.o
 .text          0x00000000        0x0 xcp_ext_param_default_serial.o
 .data          0x00000000        0x0 xcp_ext_param_default_serial.o
 .bss           0x00000000        0x0 xcp_ext_param_default_serial.o
 .text.xcpExtModeParseArgs
                0x00000000        0x2 xcp_ext_param_default_serial.o
 .text          0x00000000        0x0 MW_ArduinoHWInit.o
 .data          0x00000000        0x0 MW_ArduinoHWInit.o
 .bss           0x00000000        0x0 MW_ArduinoHWInit.o
 .text.MW_Modbus_Slave_Poll
                0x00000000        0x2 MW_ArduinoHWInit.o
 .text          0x00000000        0x0 io_wrappers.o
 .data          0x00000000        0x0 io_wrappers.o
 .bss           0x00000000        0x0 io_wrappers.o
 .text.MW_pinModeAnalogInput
                0x00000000       0x10 io_wrappers.o
 .text.MW_delay_in_milliseconds
                0x00000000       0x16 io_wrappers.o
 .text.MW_delay_in_microseconds
                0x00000000       0x16 io_wrappers.o
 .text.Serial_read
                0x00000000       0x34 io_wrappers.o
 .text.Serial_write
                0x00000000       0x24 io_wrappers.o
 .text          0x00000000        0x0 arduinoARM_M0plusScheduler.o
 .data          0x00000000        0x0 arduinoARM_M0plusScheduler.o
 .bss           0x00000000        0x0 arduinoARM_M0plusScheduler.o
 .text._Z10rtcDisablev
                0x00000000       0x18 arduinoARM_M0plusScheduler.o
 .text.Setup_SchedulerTimer
                0x00000000       0xe4 arduinoARM_M0plusScheduler.o
 .text.enable_rt_OneStep
                0x00000000        0xc arduinoARM_M0plusScheduler.o
 .bss.actualtime
                0x00000000        0x4 arduinoARM_M0plusScheduler.o
 .bss.oldtime   0x00000000        0x4 arduinoARM_M0plusScheduler.o
 .text          0x00000000        0x0 m0m1m0plus_multitasking.o
 .data          0x00000000        0x0 m0m1m0plus_multitasking.o
 .bss           0x00000000        0x0 m0m1m0plus_multitasking.o
 .text          0x00000000        0x0 rtiostream_serial_daemon.o
 .data          0x00000000        0x0 rtiostream_serial_daemon.o
 .bss           0x00000000        0x0 rtiostream_serial_daemon.o
 .text.rtIOStreamResync
                0x00000000        0xc rtiostream_serial_daemon.o
 .text          0x00000000        0x0 sys_arch.o
 .data          0x00000000        0x0 sys_arch.o
 .bss           0x00000000        0x0 sys_arch.o
 .text          0x00000000        0x0 ert_main.o
 .data          0x00000000        0x0 ert_main.o
 .bss           0x00000000        0x0 ert_main.o
 .text          0x00000000        0x0 C:/Users/Ege/DOCUME~1/MATLAB/R2020b/ARDUIN~1/ARDUIN~1/FASTER~2/MW_RebuildSrc_Core.o
 .data          0x00000000        0x0 C:/Users/Ege/DOCUME~1/MATLAB/R2020b/ARDUIN~1/ARDUIN~1/FASTER~2/MW_RebuildSrc_Core.o
 .bss           0x00000000        0x0 C:/Users/Ege/DOCUME~1/MATLAB/R2020b/ARDUIN~1/ARDUIN~1/FASTER~2/MW_RebuildSrc_Core.o
 .text._Z21randomTestabcCoreNamev
                0x00000000        0x2 C:/Users/Ege/DOCUME~1/MATLAB/R2020b/ARDUIN~1/ARDUIN~1/FASTER~2/MW_RebuildSrc_Core.o
 .comment       0x00000000       0x71 C:/Users/Ege/DOCUME~1/MATLAB/R2020b/ARDUIN~1/ARDUIN~1/FASTER~2/MW_RebuildSrc_Core.o
 .ARM.attributes
                0x00000000       0x32 C:/Users/Ege/DOCUME~1/MATLAB/R2020b/ARDUIN~1/ARDUIN~1/FASTER~2/MW_RebuildSrc_Core.o
 .text          0x00000000        0x0 c:/programdata/matlab/supportpackages/r2020b/3p.instrset/arduinoide.instrset/tools/arm-none-eabi-gcc/4.8.3-2014q1/bin/../lib/gcc/arm-none-eabi/4.8.3/../../../../arm-none-eabi/lib/armv6-m\libm.a(lib_a-w_fmod.o)
 .data          0x00000000        0x0 c:/programdata/matlab/supportpackages/r2020b/3p.instrset/arduinoide.instrset/tools/arm-none-eabi-gcc/4.8.3-2014q1/bin/../lib/gcc/arm-none-eabi/4.8.3/../../../../arm-none-eabi/lib/armv6-m\libm.a(lib_a-w_fmod.o)
 .bss           0x00000000        0x0 c:/programdata/matlab/supportpackages/r2020b/3p.instrset/arduinoide.instrset/tools/arm-none-eabi-gcc/4.8.3-2014q1/bin/../lib/gcc/arm-none-eabi/4.8.3/../../../../arm-none-eabi/lib/armv6-m\libm.a(lib_a-w_fmod.o)
 .text          0x00000000        0x0 c:/programdata/matlab/supportpackages/r2020b/3p.instrset/arduinoide.instrset/tools/arm-none-eabi-gcc/4.8.3-2014q1/bin/../lib/gcc/arm-none-eabi/4.8.3/../../../../arm-none-eabi/lib/armv6-m\libm.a(lib_a-e_fmod.o)
 .data          0x00000000        0x0 c:/programdata/matlab/supportpackages/r2020b/3p.instrset/arduinoide.instrset/tools/arm-none-eabi-gcc/4.8.3-2014q1/bin/../lib/gcc/arm-none-eabi/4.8.3/../../../../arm-none-eabi/lib/armv6-m\libm.a(lib_a-e_fmod.o)
 .bss           0x00000000        0x0 c:/programdata/matlab/supportpackages/r2020b/3p.instrset/arduinoide.instrset/tools/arm-none-eabi-gcc/4.8.3-2014q1/bin/../lib/gcc/arm-none-eabi/4.8.3/../../../../arm-none-eabi/lib/armv6-m\libm.a(lib_a-e_fmod.o)
 .text          0x00000000        0x0 c:/programdata/matlab/supportpackages/r2020b/3p.instrset/arduinoide.instrset/tools/arm-none-eabi-gcc/4.8.3-2014q1/bin/../lib/gcc/arm-none-eabi/4.8.3/../../../../arm-none-eabi/lib/armv6-m\libm.a(lib_a-s_fpclassify.o)
 .data          0x00000000        0x0 c:/programdata/matlab/supportpackages/r2020b/3p.instrset/arduinoide.instrset/tools/arm-none-eabi-gcc/4.8.3-2014q1/bin/../lib/gcc/arm-none-eabi/4.8.3/../../../../arm-none-eabi/lib/armv6-m\libm.a(lib_a-s_fpclassify.o)
 .bss           0x00000000        0x0 c:/programdata/matlab/supportpackages/r2020b/3p.instrset/arduinoide.instrset/tools/arm-none-eabi-gcc/4.8.3-2014q1/bin/../lib/gcc/arm-none-eabi/4.8.3/../../../../arm-none-eabi/lib/armv6-m\libm.a(lib_a-s_fpclassify.o)
 .text          0x00000000        0x0 c:/programdata/matlab/supportpackages/r2020b/3p.instrset/arduinoide.instrset/tools/arm-none-eabi-gcc/4.8.3-2014q1/bin/../lib/gcc/arm-none-eabi/4.8.3/../../../../arm-none-eabi/lib/armv6-m\libm.a(lib_a-s_lib_ver.o)
 .data          0x00000000        0x0 c:/programdata/matlab/supportpackages/r2020b/3p.instrset/arduinoide.instrset/tools/arm-none-eabi-gcc/4.8.3-2014q1/bin/../lib/gcc/arm-none-eabi/4.8.3/../../../../arm-none-eabi/lib/armv6-m\libm.a(lib_a-s_lib_ver.o)
 .bss           0x00000000        0x0 c:/programdata/matlab/supportpackages/r2020b/3p.instrset/arduinoide.instrset/tools/arm-none-eabi-gcc/4.8.3-2014q1/bin/../lib/gcc/arm-none-eabi/4.8.3/../../../../arm-none-eabi/lib/armv6-m\libm.a(lib_a-s_lib_ver.o)
 .text          0x00000000        0x0 c:/programdata/matlab/supportpackages/r2020b/3p.instrset/arduinoide.instrset/tools/arm-none-eabi-gcc/4.8.3-2014q1/bin/../lib/gcc/arm-none-eabi/4.8.3/../../../../arm-none-eabi/lib/armv6-m\libm.a(lib_a-s_matherr.o)
 .data          0x00000000        0x0 c:/programdata/matlab/supportpackages/r2020b/3p.instrset/arduinoide.instrset/tools/arm-none-eabi-gcc/4.8.3-2014q1/bin/../lib/gcc/arm-none-eabi/4.8.3/../../../../arm-none-eabi/lib/armv6-m\libm.a(lib_a-s_matherr.o)
 .bss           0x00000000        0x0 c:/programdata/matlab/supportpackages/r2020b/3p.instrset/arduinoide.instrset/tools/arm-none-eabi-gcc/4.8.3-2014q1/bin/../lib/gcc/arm-none-eabi/4.8.3/../../../../arm-none-eabi/lib/armv6-m\libm.a(lib_a-s_matherr.o)
 .text          0x00000000        0x0 C:/Users/Ege/DOCUME~1/MATLAB/R2020b/ARDUIN~1/ARDUIN~1/FASTER~2\libcore.a(cortex_handlers.o)
 .data          0x00000000        0x0 C:/Users/Ege/DOCUME~1/MATLAB/R2020b/ARDUIN~1/ARDUIN~1/FASTER~2\libcore.a(cortex_handlers.o)
 .bss           0x00000000        0x0 C:/Users/Ege/DOCUME~1/MATLAB/R2020b/ARDUIN~1/ARDUIN~1/FASTER~2\libcore.a(cortex_handlers.o)
 .text          0x00000000        0x0 C:/Users/Ege/DOCUME~1/MATLAB/R2020b/ARDUIN~1/ARDUIN~1/FASTER~2\libcore.a(hooks.o)
 .data          0x00000000        0x0 C:/Users/Ege/DOCUME~1/MATLAB/R2020b/ARDUIN~1/ARDUIN~1/FASTER~2\libcore.a(hooks.o)
 .bss           0x00000000        0x0 C:/Users/Ege/DOCUME~1/MATLAB/R2020b/ARDUIN~1/ARDUIN~1/FASTER~2\libcore.a(hooks.o)
 .text.__halt   0x00000000        0x2 C:/Users/Ege/DOCUME~1/MATLAB/R2020b/ARDUIN~1/ARDUIN~1/FASTER~2\libcore.a(hooks.o)
 .text          0x00000000        0x0 C:/Users/Ege/DOCUME~1/MATLAB/R2020b/ARDUIN~1/ARDUIN~1/FASTER~2\libcore.a(delay.o)
 .data          0x00000000        0x0 C:/Users/Ege/DOCUME~1/MATLAB/R2020b/ARDUIN~1/ARDUIN~1/FASTER~2\libcore.a(delay.o)
 .bss           0x00000000        0x0 C:/Users/Ege/DOCUME~1/MATLAB/R2020b/ARDUIN~1/ARDUIN~1/FASTER~2\libcore.a(delay.o)
 .text.millis   0x00000000        0xc C:/Users/Ege/DOCUME~1/MATLAB/R2020b/ARDUIN~1/ARDUIN~1/FASTER~2\libcore.a(delay.o)
 .text.resetExternalChip
                0x00000000        0x2 C:/Users/Ege/DOCUME~1/MATLAB/R2020b/ARDUIN~1/ARDUIN~1/FASTER~2\libcore.a(delay.o)
 .text          0x00000000        0x0 C:/Users/Ege/DOCUME~1/MATLAB/R2020b/ARDUIN~1/ARDUIN~1/FASTER~2\libcore.a(startup.o)
 .data          0x00000000        0x0 C:/Users/Ege/DOCUME~1/MATLAB/R2020b/ARDUIN~1/ARDUIN~1/FASTER~2\libcore.a(startup.o)
 .bss           0x00000000        0x0 C:/Users/Ege/DOCUME~1/MATLAB/R2020b/ARDUIN~1/ARDUIN~1/FASTER~2\libcore.a(startup.o)
 .text          0x00000000        0x0 C:/Users/Ege/DOCUME~1/MATLAB/R2020b/ARDUIN~1/ARDUIN~1/FASTER~2\libcore.a(wiring.o)
 .data          0x00000000        0x0 C:/Users/Ege/DOCUME~1/MATLAB/R2020b/ARDUIN~1/ARDUIN~1/FASTER~2\libcore.a(wiring.o)
 .bss           0x00000000        0x0 C:/Users/Ege/DOCUME~1/MATLAB/R2020b/ARDUIN~1/ARDUIN~1/FASTER~2\libcore.a(wiring.o)
 .text          0x00000000        0x0 C:/Users/Ege/DOCUME~1/MATLAB/R2020b/ARDUIN~1/ARDUIN~1/FASTER~2\libcore.a(wiring_analog.o)
 .data          0x00000000        0x0 C:/Users/Ege/DOCUME~1/MATLAB/R2020b/ARDUIN~1/ARDUIN~1/FASTER~2\libcore.a(wiring_analog.o)
 .bss           0x00000000        0x0 C:/Users/Ege/DOCUME~1/MATLAB/R2020b/ARDUIN~1/ARDUIN~1/FASTER~2\libcore.a(wiring_analog.o)
 .text.analogReadResolution
                0x00000000       0x4c C:/Users/Ege/DOCUME~1/MATLAB/R2020b/ARDUIN~1/ARDUIN~1/FASTER~2\libcore.a(wiring_analog.o)
 .text.analogWriteResolution
                0x00000000        0xc C:/Users/Ege/DOCUME~1/MATLAB/R2020b/ARDUIN~1/ARDUIN~1/FASTER~2\libcore.a(wiring_analog.o)
 .text.analogRead
                0x00000000       0xe4 C:/Users/Ege/DOCUME~1/MATLAB/R2020b/ARDUIN~1/ARDUIN~1/FASTER~2\libcore.a(wiring_analog.o)
 .data._ADCResolution
                0x00000000        0x4 C:/Users/Ege/DOCUME~1/MATLAB/R2020b/ARDUIN~1/ARDUIN~1/FASTER~2\libcore.a(wiring_analog.o)
 .data._readResolution
                0x00000000        0x4 C:/Users/Ege/DOCUME~1/MATLAB/R2020b/ARDUIN~1/ARDUIN~1/FASTER~2\libcore.a(wiring_analog.o)
 .text          0x00000000        0x0 C:/Users/Ege/DOCUME~1/MATLAB/R2020b/ARDUIN~1/ARDUIN~1/FASTER~2\libcore.a(wiring_digital.o)
 .data          0x00000000        0x0 C:/Users/Ege/DOCUME~1/MATLAB/R2020b/ARDUIN~1/ARDUIN~1/FASTER~2\libcore.a(wiring_digital.o)
 .bss           0x00000000        0x0 C:/Users/Ege/DOCUME~1/MATLAB/R2020b/ARDUIN~1/ARDUIN~1/FASTER~2\libcore.a(wiring_digital.o)
 .text.digitalRead
                0x00000000       0x30 C:/Users/Ege/DOCUME~1/MATLAB/R2020b/ARDUIN~1/ARDUIN~1/FASTER~2\libcore.a(wiring_digital.o)
 .text          0x00000000        0x0 C:/Users/Ege/DOCUME~1/MATLAB/R2020b/ARDUIN~1/ARDUIN~1/FASTER~2\libcore.a(wiring_private.o)
 .data          0x00000000        0x0 C:/Users/Ege/DOCUME~1/MATLAB/R2020b/ARDUIN~1/ARDUIN~1/FASTER~2\libcore.a(wiring_private.o)
 .bss           0x00000000        0x0 C:/Users/Ege/DOCUME~1/MATLAB/R2020b/ARDUIN~1/ARDUIN~1/FASTER~2\libcore.a(wiring_private.o)
 .text          0x00000000        0x0 C:/Users/Ege/DOCUME~1/MATLAB/R2020b/ARDUIN~1/ARDUIN~1/FASTER~2\libcore.a(Reset.o)
 .data          0x00000000        0x0 C:/Users/Ege/DOCUME~1/MATLAB/R2020b/ARDUIN~1/ARDUIN~1/FASTER~2\libcore.a(Reset.o)
 .bss           0x00000000        0x0 C:/Users/Ege/DOCUME~1/MATLAB/R2020b/ARDUIN~1/ARDUIN~1/FASTER~2\libcore.a(Reset.o)
 .text.resetExternalChip
                0x00000000        0x2 C:/Users/Ege/DOCUME~1/MATLAB/R2020b/ARDUIN~1/ARDUIN~1/FASTER~2\libcore.a(Reset.o)
 .group         0x00000000        0x8 C:/Users/Ege/DOCUME~1/MATLAB/R2020b/ARDUIN~1/ARDUIN~1/FASTER~2\libcore.a(Uart.o)
 .group         0x00000000        0x8 C:/Users/Ege/DOCUME~1/MATLAB/R2020b/ARDUIN~1/ARDUIN~1/FASTER~2\libcore.a(Uart.o)
 .group         0x00000000        0x8 C:/Users/Ege/DOCUME~1/MATLAB/R2020b/ARDUIN~1/ARDUIN~1/FASTER~2\libcore.a(Uart.o)
 .group         0x00000000        0x8 C:/Users/Ege/DOCUME~1/MATLAB/R2020b/ARDUIN~1/ARDUIN~1/FASTER~2\libcore.a(Uart.o)
 .group         0x00000000        0x8 C:/Users/Ege/DOCUME~1/MATLAB/R2020b/ARDUIN~1/ARDUIN~1/FASTER~2\libcore.a(Uart.o)
 .group         0x00000000        0x8 C:/Users/Ege/DOCUME~1/MATLAB/R2020b/ARDUIN~1/ARDUIN~1/FASTER~2\libcore.a(Uart.o)
 .text          0x00000000        0x0 C:/Users/Ege/DOCUME~1/MATLAB/R2020b/ARDUIN~1/ARDUIN~1/FASTER~2\libcore.a(Uart.o)
 .data          0x00000000        0x0 C:/Users/Ege/DOCUME~1/MATLAB/R2020b/ARDUIN~1/ARDUIN~1/FASTER~2\libcore.a(Uart.o)
 .bss           0x00000000        0x0 C:/Users/Ege/DOCUME~1/MATLAB/R2020b/ARDUIN~1/ARDUIN~1/FASTER~2\libcore.a(Uart.o)
 .text._ZN5Print17availableForWriteEv
                0x00000000        0x4 C:/Users/Ege/DOCUME~1/MATLAB/R2020b/ARDUIN~1/ARDUIN~1/FASTER~2\libcore.a(Uart.o)
 .text._ZN5Print5flushEv
                0x00000000        0x2 C:/Users/Ege/DOCUME~1/MATLAB/R2020b/ARDUIN~1/ARDUIN~1/FASTER~2\libcore.a(Uart.o)
 .rodata._ZTV6Stream
                0x00000000       0x28 C:/Users/Ege/DOCUME~1/MATLAB/R2020b/ARDUIN~1/ARDUIN~1/FASTER~2\libcore.a(Uart.o)
 .group         0x00000000        0x8 C:/Users/Ege/DOCUME~1/MATLAB/R2020b/ARDUIN~1/ARDUIN~1/FASTER~2\libcore.a(CDC.o)
 .group         0x00000000        0x8 C:/Users/Ege/DOCUME~1/MATLAB/R2020b/ARDUIN~1/ARDUIN~1/FASTER~2\libcore.a(CDC.o)
 .group         0x00000000        0x8 C:/Users/Ege/DOCUME~1/MATLAB/R2020b/ARDUIN~1/ARDUIN~1/FASTER~2\libcore.a(CDC.o)
 .group         0x00000000        0x8 C:/Users/Ege/DOCUME~1/MATLAB/R2020b/ARDUIN~1/ARDUIN~1/FASTER~2\libcore.a(CDC.o)
 .group         0x00000000        0x8 C:/Users/Ege/DOCUME~1/MATLAB/R2020b/ARDUIN~1/ARDUIN~1/FASTER~2\libcore.a(CDC.o)
 .group         0x00000000        0x8 C:/Users/Ege/DOCUME~1/MATLAB/R2020b/ARDUIN~1/ARDUIN~1/FASTER~2\libcore.a(CDC.o)
 .text          0x00000000        0x0 C:/Users/Ege/DOCUME~1/MATLAB/R2020b/ARDUIN~1/ARDUIN~1/FASTER~2\libcore.a(CDC.o)
 .data          0x00000000        0x0 C:/Users/Ege/DOCUME~1/MATLAB/R2020b/ARDUIN~1/ARDUIN~1/FASTER~2\libcore.a(CDC.o)
 .bss           0x00000000        0x0 C:/Users/Ege/DOCUME~1/MATLAB/R2020b/ARDUIN~1/ARDUIN~1/FASTER~2\libcore.a(CDC.o)
 .text._ZN5Print17availableForWriteEv
                0x00000000        0x4 C:/Users/Ege/DOCUME~1/MATLAB/R2020b/ARDUIN~1/ARDUIN~1/FASTER~2\libcore.a(CDC.o)
 .text._ZN5Print5flushEv
                0x00000000        0x2 C:/Users/Ege/DOCUME~1/MATLAB/R2020b/ARDUIN~1/ARDUIN~1/FASTER~2\libcore.a(CDC.o)
 .text._ZN18PluggableUSBModule14handleEndpointEi
                0x00000000        0x2 C:/Users/Ege/DOCUME~1/MATLAB/R2020b/ARDUIN~1/ARDUIN~1/FASTER~2\libcore.a(CDC.o)
 .text._ZN18PluggableUSBModule12getShortNameEPc
                0x00000000        0xa C:/Users/Ege/DOCUME~1/MATLAB/R2020b/ARDUIN~1/ARDUIN~1/FASTER~2\libcore.a(CDC.o)
 .text.resetExternalChip
                0x00000000        0x2 C:/Users/Ege/DOCUME~1/MATLAB/R2020b/ARDUIN~1/ARDUIN~1/FASTER~2\libcore.a(CDC.o)
 .text._ZN7Serial_5beginEmh
                0x00000000        0x2 C:/Users/Ege/DOCUME~1/MATLAB/R2020b/ARDUIN~1/ARDUIN~1/FASTER~2\libcore.a(CDC.o)
 .text._ZN7Serial_3endEv
                0x00000000       0x14 C:/Users/Ege/DOCUME~1/MATLAB/R2020b/ARDUIN~1/ARDUIN~1/FASTER~2\libcore.a(CDC.o)
 .text._ZN7Serial_9readBytesEPcj
                0x00000000       0x3e C:/Users/Ege/DOCUME~1/MATLAB/R2020b/ARDUIN~1/ARDUIN~1/FASTER~2\libcore.a(CDC.o)
 .text._ZN7Serial_cvbEv
                0x00000000       0x28 C:/Users/Ege/DOCUME~1/MATLAB/R2020b/ARDUIN~1/ARDUIN~1/FASTER~2\libcore.a(CDC.o)
 .text._ZN7Serial_9readBreakEv
                0x00000000       0x1c C:/Users/Ege/DOCUME~1/MATLAB/R2020b/ARDUIN~1/ARDUIN~1/FASTER~2\libcore.a(CDC.o)
 .text._ZN7Serial_4baudEv
                0x00000000        0xc C:/Users/Ege/DOCUME~1/MATLAB/R2020b/ARDUIN~1/ARDUIN~1/FASTER~2\libcore.a(CDC.o)
 .text._ZN7Serial_8stopbitsEv
                0x00000000        0xc C:/Users/Ege/DOCUME~1/MATLAB/R2020b/ARDUIN~1/ARDUIN~1/FASTER~2\libcore.a(CDC.o)
 .text._ZN7Serial_10paritytypeEv
                0x00000000        0xc C:/Users/Ege/DOCUME~1/MATLAB/R2020b/ARDUIN~1/ARDUIN~1/FASTER~2\libcore.a(CDC.o)
 .text._ZN7Serial_7numbitsEv
                0x00000000        0xc C:/Users/Ege/DOCUME~1/MATLAB/R2020b/ARDUIN~1/ARDUIN~1/FASTER~2\libcore.a(CDC.o)
 .text._ZN7Serial_3dtrEv
                0x00000000       0x10 C:/Users/Ege/DOCUME~1/MATLAB/R2020b/ARDUIN~1/ARDUIN~1/FASTER~2\libcore.a(CDC.o)
 .text._ZN7Serial_3rtsEv
                0x00000000       0x10 C:/Users/Ege/DOCUME~1/MATLAB/R2020b/ARDUIN~1/ARDUIN~1/FASTER~2\libcore.a(CDC.o)
 .rodata._ZTV6Stream
                0x00000000       0x28 C:/Users/Ege/DOCUME~1/MATLAB/R2020b/ARDUIN~1/ARDUIN~1/FASTER~2\libcore.a(CDC.o)
 .rodata._ZTV18PluggableUSBModule
                0x00000000       0x20 C:/Users/Ege/DOCUME~1/MATLAB/R2020b/ARDUIN~1/ARDUIN~1/FASTER~2\libcore.a(CDC.o)
 .text          0x00000000        0x0 C:/Users/Ege/DOCUME~1/MATLAB/R2020b/ARDUIN~1/ARDUIN~1/FASTER~2\libcore.a(PluggableUSB.o)
 .data          0x00000000        0x0 C:/Users/Ege/DOCUME~1/MATLAB/R2020b/ARDUIN~1/ARDUIN~1/FASTER~2\libcore.a(PluggableUSB.o)
 .bss           0x00000000        0x0 C:/Users/Ege/DOCUME~1/MATLAB/R2020b/ARDUIN~1/ARDUIN~1/FASTER~2\libcore.a(PluggableUSB.o)
 .text._ZN13PluggableUSB_C2Ev
                0x00000000        0xc C:/Users/Ege/DOCUME~1/MATLAB/R2020b/ARDUIN~1/ARDUIN~1/FASTER~2\libcore.a(PluggableUSB.o)
 .group         0x00000000        0x8 C:/Users/Ege/DOCUME~1/MATLAB/R2020b/ARDUIN~1/ARDUIN~1/FASTER~2\libcore.a(USBCore.o)
 .group         0x00000000        0x8 C:/Users/Ege/DOCUME~1/MATLAB/R2020b/ARDUIN~1/ARDUIN~1/FASTER~2\libcore.a(USBCore.o)
 .group         0x00000000        0x8 C:/Users/Ege/DOCUME~1/MATLAB/R2020b/ARDUIN~1/ARDUIN~1/FASTER~2\libcore.a(USBCore.o)
 .group         0x00000000        0x8 C:/Users/Ege/DOCUME~1/MATLAB/R2020b/ARDUIN~1/ARDUIN~1/FASTER~2\libcore.a(USBCore.o)
 .group         0x00000000        0x8 C:/Users/Ege/DOCUME~1/MATLAB/R2020b/ARDUIN~1/ARDUIN~1/FASTER~2\libcore.a(USBCore.o)
 .group         0x00000000        0x8 C:/Users/Ege/DOCUME~1/MATLAB/R2020b/ARDUIN~1/ARDUIN~1/FASTER~2\libcore.a(USBCore.o)
 .group         0x00000000        0x8 C:/Users/Ege/DOCUME~1/MATLAB/R2020b/ARDUIN~1/ARDUIN~1/FASTER~2\libcore.a(USBCore.o)
 .group         0x00000000        0x8 C:/Users/Ege/DOCUME~1/MATLAB/R2020b/ARDUIN~1/ARDUIN~1/FASTER~2\libcore.a(USBCore.o)
 .group         0x00000000        0x8 C:/Users/Ege/DOCUME~1/MATLAB/R2020b/ARDUIN~1/ARDUIN~1/FASTER~2\libcore.a(USBCore.o)
 .group         0x00000000        0x8 C:/Users/Ege/DOCUME~1/MATLAB/R2020b/ARDUIN~1/ARDUIN~1/FASTER~2\libcore.a(USBCore.o)
 .group         0x00000000        0x8 C:/Users/Ege/DOCUME~1/MATLAB/R2020b/ARDUIN~1/ARDUIN~1/FASTER~2\libcore.a(USBCore.o)
 .group         0x00000000        0x8 C:/Users/Ege/DOCUME~1/MATLAB/R2020b/ARDUIN~1/ARDUIN~1/FASTER~2\libcore.a(USBCore.o)
 .group         0x00000000        0x8 C:/Users/Ege/DOCUME~1/MATLAB/R2020b/ARDUIN~1/ARDUIN~1/FASTER~2\libcore.a(USBCore.o)
 .text          0x00000000        0x0 C:/Users/Ege/DOCUME~1/MATLAB/R2020b/ARDUIN~1/ARDUIN~1/FASTER~2\libcore.a(USBCore.o)
 .data          0x00000000        0x0 C:/Users/Ege/DOCUME~1/MATLAB/R2020b/ARDUIN~1/ARDUIN~1/FASTER~2\libcore.a(USBCore.o)
 .bss           0x00000000        0x0 C:/Users/Ege/DOCUME~1/MATLAB/R2020b/ARDUIN~1/ARDUIN~1/FASTER~2\libcore.a(USBCore.o)
 .text._ZN14USBDeviceClass7standbyEv
                0x00000000       0x14 C:/Users/Ege/DOCUME~1/MATLAB/R2020b/ARDUIN~1/ARDUIN~1/FASTER~2\libcore.a(USBCore.o)
 .text._ZN14USBDeviceClass6detachEv
                0x00000000       0x18 C:/Users/Ege/DOCUME~1/MATLAB/R2020b/ARDUIN~1/ARDUIN~1/FASTER~2\libcore.a(USBCore.o)
 .text._ZN14USBDeviceClass3endEv
                0x00000000       0x18 C:/Users/Ege/DOCUME~1/MATLAB/R2020b/ARDUIN~1/ARDUIN~1/FASTER~2\libcore.a(USBCore.o)
 .text._ZN14USBDeviceClass10configuredEv
                0x00000000       0x10 C:/Users/Ege/DOCUME~1/MATLAB/R2020b/ARDUIN~1/ARDUIN~1/FASTER~2\libcore.a(USBCore.o)
 .text._ZN14USBDeviceClass5stallEm
                0x00000000       0x10 C:/Users/Ege/DOCUME~1/MATLAB/R2020b/ARDUIN~1/ARDUIN~1/FASTER~2\libcore.a(USBCore.o)
 .text._ZN14USBDeviceClass9connectedEv
                0x00000000       0x1c C:/Users/Ege/DOCUME~1/MATLAB/R2020b/ARDUIN~1/ARDUIN~1/FASTER~2\libcore.a(USBCore.o)
 .text._ZN14USBDeviceClass12packMessagesEb
                0x00000000       0x24 C:/Users/Ege/DOCUME~1/MATLAB/R2020b/ARDUIN~1/ARDUIN~1/FASTER~2\libcore.a(USBCore.o)
 .rodata._ZTV9EPHandler
                0x00000000       0x18 C:/Users/Ege/DOCUME~1/MATLAB/R2020b/ARDUIN~1/ARDUIN~1/FASTER~2\libcore.a(USBCore.o)
 .text          0x00000000        0x0 C:/Users/Ege/DOCUME~1/MATLAB/R2020b/ARDUIN~1/ARDUIN~1/FASTER~2\libcore.a(variant.o)
 .data          0x00000000        0x0 C:/Users/Ege/DOCUME~1/MATLAB/R2020b/ARDUIN~1/ARDUIN~1/FASTER~2\libcore.a(variant.o)
 .bss           0x00000000        0x0 C:/Users/Ege/DOCUME~1/MATLAB/R2020b/ARDUIN~1/ARDUIN~1/FASTER~2\libcore.a(variant.o)
 .text.PINCOUNT_fn
                0x00000000        0x4 C:/Users/Ege/DOCUME~1/MATLAB/R2020b/ARDUIN~1/ARDUIN~1/FASTER~2\libcore.a(variant.o)
 .text._Z11initVariantv
                0x00000000       0x24 C:/Users/Ege/DOCUME~1/MATLAB/R2020b/ARDUIN~1/ARDUIN~1/FASTER~2\libcore.a(variant.o)
 .text          0x00000000        0x0 C:/Users/Ege/DOCUME~1/MATLAB/R2020b/ARDUIN~1/ARDUIN~1/FASTER~2\libcore.a(abi.o)
 .data          0x00000000        0x0 C:/Users/Ege/DOCUME~1/MATLAB/R2020b/ARDUIN~1/ARDUIN~1/FASTER~2\libcore.a(abi.o)
 .bss           0x00000000        0x0 C:/Users/Ege/DOCUME~1/MATLAB/R2020b/ARDUIN~1/ARDUIN~1/FASTER~2\libcore.a(abi.o)
 .text.__cxa_pure_virtual
                0x00000000        0x2 C:/Users/Ege/DOCUME~1/MATLAB/R2020b/ARDUIN~1/ARDUIN~1/FASTER~2\libcore.a(abi.o)
 .text.__cxa_deleted_virtual
                0x00000000        0x2 C:/Users/Ege/DOCUME~1/MATLAB/R2020b/ARDUIN~1/ARDUIN~1/FASTER~2\libcore.a(abi.o)
 .comment       0x00000000       0x71 C:/Users/Ege/DOCUME~1/MATLAB/R2020b/ARDUIN~1/ARDUIN~1/FASTER~2\libcore.a(abi.o)
 .ARM.attributes
                0x00000000       0x32 C:/Users/Ege/DOCUME~1/MATLAB/R2020b/ARDUIN~1/ARDUIN~1/FASTER~2\libcore.a(abi.o)
 .text          0x00000000        0x0 C:/Users/Ege/DOCUME~1/MATLAB/R2020b/ARDUIN~1/ARDUIN~1/FASTER~2\libcore.a(new.o)
 .data          0x00000000        0x0 C:/Users/Ege/DOCUME~1/MATLAB/R2020b/ARDUIN~1/ARDUIN~1/FASTER~2\libcore.a(new.o)
 .bss           0x00000000        0x0 C:/Users/Ege/DOCUME~1/MATLAB/R2020b/ARDUIN~1/ARDUIN~1/FASTER~2\libcore.a(new.o)
 .text._Znaj    0x00000000        0x8 C:/Users/Ege/DOCUME~1/MATLAB/R2020b/ARDUIN~1/ARDUIN~1/FASTER~2\libcore.a(new.o)
 .text._ZdaPv   0x00000000        0x8 C:/Users/Ege/DOCUME~1/MATLAB/R2020b/ARDUIN~1/ARDUIN~1/FASTER~2\libcore.a(new.o)
 .group         0x00000000        0x8 C:/Users/Ege/DOCUME~1/MATLAB/R2020b/ARDUIN~1/ARDUIN~1/FASTER~2\libcore.a(Print.o)
 .group         0x00000000        0x8 C:/Users/Ege/DOCUME~1/MATLAB/R2020b/ARDUIN~1/ARDUIN~1/FASTER~2\libcore.a(Print.o)
 .group         0x00000000        0x8 C:/Users/Ege/DOCUME~1/MATLAB/R2020b/ARDUIN~1/ARDUIN~1/FASTER~2\libcore.a(Print.o)
 .text          0x00000000        0x0 C:/Users/Ege/DOCUME~1/MATLAB/R2020b/ARDUIN~1/ARDUIN~1/FASTER~2\libcore.a(Print.o)
 .data          0x00000000        0x0 C:/Users/Ege/DOCUME~1/MATLAB/R2020b/ARDUIN~1/ARDUIN~1/FASTER~2\libcore.a(Print.o)
 .bss           0x00000000        0x0 C:/Users/Ege/DOCUME~1/MATLAB/R2020b/ARDUIN~1/ARDUIN~1/FASTER~2\libcore.a(Print.o)
 .text._ZN5Print17availableForWriteEv
                0x00000000        0x4 C:/Users/Ege/DOCUME~1/MATLAB/R2020b/ARDUIN~1/ARDUIN~1/FASTER~2\libcore.a(Print.o)
 .text._ZN5Print5flushEv
                0x00000000        0x2 C:/Users/Ege/DOCUME~1/MATLAB/R2020b/ARDUIN~1/ARDUIN~1/FASTER~2\libcore.a(Print.o)
 .text._ZN5Print5printEmi.part.3
                0x00000000        0xc C:/Users/Ege/DOCUME~1/MATLAB/R2020b/ARDUIN~1/ARDUIN~1/FASTER~2\libcore.a(Print.o)
 .text._ZN5Print5writeEPKc
                0x00000000       0x1c C:/Users/Ege/DOCUME~1/MATLAB/R2020b/ARDUIN~1/ARDUIN~1/FASTER~2\libcore.a(Print.o)
 .text._ZN5Print5printEPK19__FlashStringHelper
                0x00000000        0x8 C:/Users/Ege/DOCUME~1/MATLAB/R2020b/ARDUIN~1/ARDUIN~1/FASTER~2\libcore.a(Print.o)
 .text._ZN5Print5printERK6String
                0x00000000       0x10 C:/Users/Ege/DOCUME~1/MATLAB/R2020b/ARDUIN~1/ARDUIN~1/FASTER~2\libcore.a(Print.o)
 .text._ZN5Print5printEPKc
                0x00000000        0x8 C:/Users/Ege/DOCUME~1/MATLAB/R2020b/ARDUIN~1/ARDUIN~1/FASTER~2\libcore.a(Print.o)
 .text._ZN5Print5printEc
                0x00000000        0xa C:/Users/Ege/DOCUME~1/MATLAB/R2020b/ARDUIN~1/ARDUIN~1/FASTER~2\libcore.a(Print.o)
 .text._ZN5Print5printERK9Printable
                0x00000000       0x10 C:/Users/Ege/DOCUME~1/MATLAB/R2020b/ARDUIN~1/ARDUIN~1/FASTER~2\libcore.a(Print.o)
 .text._ZN5Print7printlnEv
                0x00000000       0x10 C:/Users/Ege/DOCUME~1/MATLAB/R2020b/ARDUIN~1/ARDUIN~1/FASTER~2\libcore.a(Print.o)
 .text._ZN5Print7printlnEPK19__FlashStringHelper
                0x00000000       0x14 C:/Users/Ege/DOCUME~1/MATLAB/R2020b/ARDUIN~1/ARDUIN~1/FASTER~2\libcore.a(Print.o)
 .text._ZN5Print7printlnERK6String
                0x00000000       0x14 C:/Users/Ege/DOCUME~1/MATLAB/R2020b/ARDUIN~1/ARDUIN~1/FASTER~2\libcore.a(Print.o)
 .text._ZN5Print7printlnEPKc
                0x00000000       0x14 C:/Users/Ege/DOCUME~1/MATLAB/R2020b/ARDUIN~1/ARDUIN~1/FASTER~2\libcore.a(Print.o)
 .text._ZN5Print7printlnEc
                0x00000000       0x14 C:/Users/Ege/DOCUME~1/MATLAB/R2020b/ARDUIN~1/ARDUIN~1/FASTER~2\libcore.a(Print.o)
 .text._ZN5Print7printlnERK9Printable
                0x00000000       0x14 C:/Users/Ege/DOCUME~1/MATLAB/R2020b/ARDUIN~1/ARDUIN~1/FASTER~2\libcore.a(Print.o)
 .text._ZN5Print11printNumberEmh
                0x00000000       0x4e C:/Users/Ege/DOCUME~1/MATLAB/R2020b/ARDUIN~1/ARDUIN~1/FASTER~2\libcore.a(Print.o)
 .text._ZN5Print5printEli
                0x00000000       0x3c C:/Users/Ege/DOCUME~1/MATLAB/R2020b/ARDUIN~1/ARDUIN~1/FASTER~2\libcore.a(Print.o)
 .text._ZN5Print5printEii
                0x00000000        0x8 C:/Users/Ege/DOCUME~1/MATLAB/R2020b/ARDUIN~1/ARDUIN~1/FASTER~2\libcore.a(Print.o)
 .text._ZN5Print7printlnEii
                0x00000000       0x14 C:/Users/Ege/DOCUME~1/MATLAB/R2020b/ARDUIN~1/ARDUIN~1/FASTER~2\libcore.a(Print.o)
 .text._ZN5Print7printlnEli
                0x00000000       0x14 C:/Users/Ege/DOCUME~1/MATLAB/R2020b/ARDUIN~1/ARDUIN~1/FASTER~2\libcore.a(Print.o)
 .text._ZN5Print5printEmi
                0x00000000       0x14 C:/Users/Ege/DOCUME~1/MATLAB/R2020b/ARDUIN~1/ARDUIN~1/FASTER~2\libcore.a(Print.o)
 .text._ZN5Print5printEhi
                0x00000000        0x8 C:/Users/Ege/DOCUME~1/MATLAB/R2020b/ARDUIN~1/ARDUIN~1/FASTER~2\libcore.a(Print.o)
 .text._ZN5Print7printlnEhi
                0x00000000       0x14 C:/Users/Ege/DOCUME~1/MATLAB/R2020b/ARDUIN~1/ARDUIN~1/FASTER~2\libcore.a(Print.o)
 .text._ZN5Print5printEji
                0x00000000        0x8 C:/Users/Ege/DOCUME~1/MATLAB/R2020b/ARDUIN~1/ARDUIN~1/FASTER~2\libcore.a(Print.o)
 .text._ZN5Print7printlnEji
                0x00000000       0x14 C:/Users/Ege/DOCUME~1/MATLAB/R2020b/ARDUIN~1/ARDUIN~1/FASTER~2\libcore.a(Print.o)
 .text._ZN5Print7printlnEmi
                0x00000000       0x14 C:/Users/Ege/DOCUME~1/MATLAB/R2020b/ARDUIN~1/ARDUIN~1/FASTER~2\libcore.a(Print.o)
 .text._ZN5Print10printFloatEdh
                0x00000000      0x170 C:/Users/Ege/DOCUME~1/MATLAB/R2020b/ARDUIN~1/ARDUIN~1/FASTER~2\libcore.a(Print.o)
 .text._ZN5Print5printEdi
                0x00000000        0xe C:/Users/Ege/DOCUME~1/MATLAB/R2020b/ARDUIN~1/ARDUIN~1/FASTER~2\libcore.a(Print.o)
 .text._ZN5Print7printlnEdi
                0x00000000       0x1c C:/Users/Ege/DOCUME~1/MATLAB/R2020b/ARDUIN~1/ARDUIN~1/FASTER~2\libcore.a(Print.o)
 .rodata._ZTV5Print
                0x00000000       0x18 C:/Users/Ege/DOCUME~1/MATLAB/R2020b/ARDUIN~1/ARDUIN~1/FASTER~2\libcore.a(Print.o)
 .rodata.str1.1
                0x00000000        0xf C:/Users/Ege/DOCUME~1/MATLAB/R2020b/ARDUIN~1/ARDUIN~1/FASTER~2\libcore.a(Print.o)
 .text          0x00000000        0x0 C:/Users/Ege/DOCUME~1/MATLAB/R2020b/ARDUIN~1/ARDUIN~1/FASTER~2\libcore.a(SERCOM.o)
 .data          0x00000000        0x0 C:/Users/Ege/DOCUME~1/MATLAB/R2020b/ARDUIN~1/ARDUIN~1/FASTER~2\libcore.a(SERCOM.o)
 .bss           0x00000000        0x0 C:/Users/Ege/DOCUME~1/MATLAB/R2020b/ARDUIN~1/ARDUIN~1/FASTER~2\libcore.a(SERCOM.o)
 .text._ZN6SERCOM25isBufferOverflowErrorUARTEv
                0x00000000        0xa C:/Users/Ege/DOCUME~1/MATLAB/R2020b/ARDUIN~1/ARDUIN~1/FASTER~2\libcore.a(SERCOM.o)
 .text._ZN6SERCOM17isParityErrorUARTEv
                0x00000000        0xa C:/Users/Ege/DOCUME~1/MATLAB/R2020b/ARDUIN~1/ARDUIN~1/FASTER~2\libcore.a(SERCOM.o)
 .text._ZN6SERCOM12initSPIClockE18SercomSpiClockModem
                0x00000000       0x30 C:/Users/Ege/DOCUME~1/MATLAB/R2020b/ARDUIN~1/ARDUIN~1/FASTER~2\libcore.a(SERCOM.o)
 .text._ZN6SERCOM8resetSPIEv
                0x00000000       0x1c C:/Users/Ege/DOCUME~1/MATLAB/R2020b/ARDUIN~1/ARDUIN~1/FASTER~2\libcore.a(SERCOM.o)
 .text._ZN6SERCOM9enableSPIEv
                0x00000000       0x14 C:/Users/Ege/DOCUME~1/MATLAB/R2020b/ARDUIN~1/ARDUIN~1/FASTER~2\libcore.a(SERCOM.o)
 .text._ZN6SERCOM10disableSPIEv
                0x00000000       0x12 C:/Users/Ege/DOCUME~1/MATLAB/R2020b/ARDUIN~1/ARDUIN~1/FASTER~2\libcore.a(SERCOM.o)
 .text._ZN6SERCOM15setDataOrderSPIE15SercomDataOrder
                0x00000000       0x28 C:/Users/Ege/DOCUME~1/MATLAB/R2020b/ARDUIN~1/ARDUIN~1/FASTER~2\libcore.a(SERCOM.o)
 .text._ZN6SERCOM15getDataOrderSPIEv
                0x00000000        0xa C:/Users/Ege/DOCUME~1/MATLAB/R2020b/ARDUIN~1/ARDUIN~1/FASTER~2\libcore.a(SERCOM.o)
 .text._ZN6SERCOM14setBaudrateSPIEh
                0x00000000       0x30 C:/Users/Ege/DOCUME~1/MATLAB/R2020b/ARDUIN~1/ARDUIN~1/FASTER~2\libcore.a(SERCOM.o)
 .text._ZN6SERCOM15setClockModeSPIE18SercomSpiClockMode
                0x00000000       0x3c C:/Users/Ege/DOCUME~1/MATLAB/R2020b/ARDUIN~1/ARDUIN~1/FASTER~2\libcore.a(SERCOM.o)
 .text._ZN6SERCOM15transferDataSPIEh
                0x00000000       0x1a C:/Users/Ege/DOCUME~1/MATLAB/R2020b/ARDUIN~1/ARDUIN~1/FASTER~2\libcore.a(SERCOM.o)
 .text._ZN6SERCOM24isBufferOverflowErrorSPIEv
                0x00000000        0xa C:/Users/Ege/DOCUME~1/MATLAB/R2020b/ARDUIN~1/ARDUIN~1/FASTER~2\libcore.a(SERCOM.o)
 .text._ZN6SERCOM22isDataRegisterEmptySPIEv
                0x00000000        0xa C:/Users/Ege/DOCUME~1/MATLAB/R2020b/ARDUIN~1/ARDUIN~1/FASTER~2\libcore.a(SERCOM.o)
 .text._ZN6SERCOM28calculateBaudrateSynchronousEm
                0x00000000       0x14 C:/Users/Ege/DOCUME~1/MATLAB/R2020b/ARDUIN~1/ARDUIN~1/FASTER~2\libcore.a(SERCOM.o)
 .text._ZN6SERCOM9resetWIREEv
                0x00000000       0x1c C:/Users/Ege/DOCUME~1/MATLAB/R2020b/ARDUIN~1/ARDUIN~1/FASTER~2\libcore.a(SERCOM.o)
 .text._ZN6SERCOM10enableWIREEv
                0x00000000       0x28 C:/Users/Ege/DOCUME~1/MATLAB/R2020b/ARDUIN~1/ARDUIN~1/FASTER~2\libcore.a(SERCOM.o)
 .text._ZN6SERCOM11disableWIREEv
                0x00000000       0x14 C:/Users/Ege/DOCUME~1/MATLAB/R2020b/ARDUIN~1/ARDUIN~1/FASTER~2\libcore.a(SERCOM.o)
 .text._ZN6SERCOM18prepareNackBitWIREEv
                0x00000000       0x10 C:/Users/Ege/DOCUME~1/MATLAB/R2020b/ARDUIN~1/ARDUIN~1/FASTER~2\libcore.a(SERCOM.o)
 .text._ZN6SERCOM17prepareAckBitWIREEv
                0x00000000       0x14 C:/Users/Ege/DOCUME~1/MATLAB/R2020b/ARDUIN~1/ARDUIN~1/FASTER~2\libcore.a(SERCOM.o)
 .text._ZN6SERCOM22prepareCommandBitsWireEh
                0x00000000       0x2c C:/Users/Ege/DOCUME~1/MATLAB/R2020b/ARDUIN~1/ARDUIN~1/FASTER~2\libcore.a(SERCOM.o)
 .text._ZN6SERCOM21startTransmissionWIREEh23SercomWireReadWriteFlag
                0x00000000       0x8c C:/Users/Ege/DOCUME~1/MATLAB/R2020b/ARDUIN~1/ARDUIN~1/FASTER~2\libcore.a(SERCOM.o)
 .text._ZN6SERCOM18sendDataMasterWIREEh
                0x00000000       0x22 C:/Users/Ege/DOCUME~1/MATLAB/R2020b/ARDUIN~1/ARDUIN~1/FASTER~2\libcore.a(SERCOM.o)
 .text._ZN6SERCOM17sendDataSlaveWIREEh
                0x00000000       0x1a C:/Users/Ege/DOCUME~1/MATLAB/R2020b/ARDUIN~1/ARDUIN~1/FASTER~2\libcore.a(SERCOM.o)
 .text._ZN6SERCOM12isMasterWIREEv
                0x00000000       0x12 C:/Users/Ege/DOCUME~1/MATLAB/R2020b/ARDUIN~1/ARDUIN~1/FASTER~2\libcore.a(SERCOM.o)
 .text._ZN6SERCOM11isSlaveWIREEv
                0x00000000       0x12 C:/Users/Ege/DOCUME~1/MATLAB/R2020b/ARDUIN~1/ARDUIN~1/FASTER~2\libcore.a(SERCOM.o)
 .text._ZN6SERCOM13isBusIdleWIREEv
                0x00000000       0x12 C:/Users/Ege/DOCUME~1/MATLAB/R2020b/ARDUIN~1/ARDUIN~1/FASTER~2\libcore.a(SERCOM.o)
 .text._ZN6SERCOM14isBusOwnerWIREEv
                0x00000000       0x12 C:/Users/Ege/DOCUME~1/MATLAB/R2020b/ARDUIN~1/ARDUIN~1/FASTER~2\libcore.a(SERCOM.o)
 .text._ZN6SERCOM13isArbLostWIREEv
                0x00000000        0xa C:/Users/Ege/DOCUME~1/MATLAB/R2020b/ARDUIN~1/ARDUIN~1/FASTER~2\libcore.a(SERCOM.o)
 .text._ZN6SERCOM13isBusBusyWIREEv
                0x00000000       0x12 C:/Users/Ege/DOCUME~1/MATLAB/R2020b/ARDUIN~1/ARDUIN~1/FASTER~2\libcore.a(SERCOM.o)
 .text._ZN6SERCOM15isDataReadyWIREEv
                0x00000000        0xa C:/Users/Ege/DOCUME~1/MATLAB/R2020b/ARDUIN~1/ARDUIN~1/FASTER~2\libcore.a(SERCOM.o)
 .text._ZN6SERCOM18isStopDetectedWIREEv
                0x00000000        0xa C:/Users/Ege/DOCUME~1/MATLAB/R2020b/ARDUIN~1/ARDUIN~1/FASTER~2\libcore.a(SERCOM.o)
 .text._ZN6SERCOM21isRestartDetectedWIREEv
                0x00000000        0xa C:/Users/Ege/DOCUME~1/MATLAB/R2020b/ARDUIN~1/ARDUIN~1/FASTER~2\libcore.a(SERCOM.o)
 .text._ZN6SERCOM14isAddressMatchEv
                0x00000000        0xa C:/Users/Ege/DOCUME~1/MATLAB/R2020b/ARDUIN~1/ARDUIN~1/FASTER~2\libcore.a(SERCOM.o)
 .text._ZN6SERCOM25isMasterReadOperationWIREEv
                0x00000000        0xa C:/Users/Ege/DOCUME~1/MATLAB/R2020b/ARDUIN~1/ARDUIN~1/FASTER~2\libcore.a(SERCOM.o)
 .text._ZN6SERCOM20isRXNackReceivedWIREEv
                0x00000000        0xa C:/Users/Ege/DOCUME~1/MATLAB/R2020b/ARDUIN~1/ARDUIN~1/FASTER~2\libcore.a(SERCOM.o)
 .text._ZN6SERCOM13availableWIREEv
                0x00000000       0x1a C:/Users/Ege/DOCUME~1/MATLAB/R2020b/ARDUIN~1/ARDUIN~1/FASTER~2\libcore.a(SERCOM.o)
 .text._ZN6SERCOM12readDataWIREEv
                0x00000000       0x22 C:/Users/Ege/DOCUME~1/MATLAB/R2020b/ARDUIN~1/ARDUIN~1/FASTER~2\libcore.a(SERCOM.o)
 .text._ZN6SERCOM7initSPIE14SercomSpiTXPad11SercomRXPad17SercomSpiCharSize15SercomDataOrder
                0x00000000       0x48 C:/Users/Ege/DOCUME~1/MATLAB/R2020b/ARDUIN~1/ARDUIN~1/FASTER~2\libcore.a(SERCOM.o)
 .text._ZN6SERCOM13initSlaveWIREEhb
                0x00000000       0x48 C:/Users/Ege/DOCUME~1/MATLAB/R2020b/ARDUIN~1/ARDUIN~1/FASTER~2\libcore.a(SERCOM.o)
 .text._ZN6SERCOM14initMasterWIREEm
                0x00000000       0x54 C:/Users/Ege/DOCUME~1/MATLAB/R2020b/ARDUIN~1/ARDUIN~1/FASTER~2\libcore.a(SERCOM.o)
 .data          0x00000000        0x0 c:/programdata/matlab/supportpackages/r2020b/3p.instrset/arduinoide.instrset/tools/arm-none-eabi-gcc/4.8.3-2014q1/bin/../lib/gcc/arm-none-eabi/4.8.3/armv6-m\libgcc.a(_thumb1_case_uqi.o)
 .bss           0x00000000        0x0 c:/programdata/matlab/supportpackages/r2020b/3p.instrset/arduinoide.instrset/tools/arm-none-eabi-gcc/4.8.3-2014q1/bin/../lib/gcc/arm-none-eabi/4.8.3/armv6-m\libgcc.a(_thumb1_case_uqi.o)
 .data          0x00000000        0x0 c:/programdata/matlab/supportpackages/r2020b/3p.instrset/arduinoide.instrset/tools/arm-none-eabi-gcc/4.8.3-2014q1/bin/../lib/gcc/arm-none-eabi/4.8.3/armv6-m\libgcc.a(_udivsi3.o)
 .bss           0x00000000        0x0 c:/programdata/matlab/supportpackages/r2020b/3p.instrset/arduinoide.instrset/tools/arm-none-eabi-gcc/4.8.3-2014q1/bin/../lib/gcc/arm-none-eabi/4.8.3/armv6-m\libgcc.a(_udivsi3.o)
 .text          0x00000000       0xc0 c:/programdata/matlab/supportpackages/r2020b/3p.instrset/arduinoide.instrset/tools/arm-none-eabi-gcc/4.8.3-2014q1/bin/../lib/gcc/arm-none-eabi/4.8.3/armv6-m\libgcc.a(_divsi3.o)
 .data          0x00000000        0x0 c:/programdata/matlab/supportpackages/r2020b/3p.instrset/arduinoide.instrset/tools/arm-none-eabi-gcc/4.8.3-2014q1/bin/../lib/gcc/arm-none-eabi/4.8.3/armv6-m\libgcc.a(_divsi3.o)
 .bss           0x00000000        0x0 c:/programdata/matlab/supportpackages/r2020b/3p.instrset/arduinoide.instrset/tools/arm-none-eabi-gcc/4.8.3-2014q1/bin/../lib/gcc/arm-none-eabi/4.8.3/armv6-m\libgcc.a(_divsi3.o)
 .debug_frame   0x00000000       0x20 c:/programdata/matlab/supportpackages/r2020b/3p.instrset/arduinoide.instrset/tools/arm-none-eabi-gcc/4.8.3-2014q1/bin/../lib/gcc/arm-none-eabi/4.8.3/armv6-m\libgcc.a(_divsi3.o)
 .ARM.attributes
                0x00000000       0x1e c:/programdata/matlab/supportpackages/r2020b/3p.instrset/arduinoide.instrset/tools/arm-none-eabi-gcc/4.8.3-2014q1/bin/../lib/gcc/arm-none-eabi/4.8.3/armv6-m\libgcc.a(_divsi3.o)
 .data          0x00000000        0x0 c:/programdata/matlab/supportpackages/r2020b/3p.instrset/arduinoide.instrset/tools/arm-none-eabi-gcc/4.8.3-2014q1/bin/../lib/gcc/arm-none-eabi/4.8.3/armv6-m\libgcc.a(_dvmd_tls.o)
 .bss           0x00000000        0x0 c:/programdata/matlab/supportpackages/r2020b/3p.instrset/arduinoide.instrset/tools/arm-none-eabi-gcc/4.8.3-2014q1/bin/../lib/gcc/arm-none-eabi/4.8.3/armv6-m\libgcc.a(_dvmd_tls.o)
 .data          0x00000000        0x0 c:/programdata/matlab/supportpackages/r2020b/3p.instrset/arduinoide.instrset/tools/arm-none-eabi-gcc/4.8.3-2014q1/bin/../lib/gcc/arm-none-eabi/4.8.3/armv6-m\libgcc.a(_arm_cmpdf2.o)
 .bss           0x00000000        0x0 c:/programdata/matlab/supportpackages/r2020b/3p.instrset/arduinoide.instrset/tools/arm-none-eabi-gcc/4.8.3-2014q1/bin/../lib/gcc/arm-none-eabi/4.8.3/armv6-m\libgcc.a(_arm_cmpdf2.o)
 .data          0x00000000        0x0 c:/programdata/matlab/supportpackages/r2020b/3p.instrset/arduinoide.instrset/tools/arm-none-eabi-gcc/4.8.3-2014q1/bin/../lib/gcc/arm-none-eabi/4.8.3/armv6-m\libgcc.a(_fixunsdfsi.o)
 .bss           0x00000000        0x0 c:/programdata/matlab/supportpackages/r2020b/3p.instrset/arduinoide.instrset/tools/arm-none-eabi-gcc/4.8.3-2014q1/bin/../lib/gcc/arm-none-eabi/4.8.3/armv6-m\libgcc.a(_fixunsdfsi.o)
 .data          0x00000000        0x0 c:/programdata/matlab/supportpackages/r2020b/3p.instrset/arduinoide.instrset/tools/arm-none-eabi-gcc/4.8.3-2014q1/bin/../lib/gcc/arm-none-eabi/4.8.3/armv6-m\libgcc.a(adddf3.o)
 .bss           0x00000000        0x0 c:/programdata/matlab/supportpackages/r2020b/3p.instrset/arduinoide.instrset/tools/arm-none-eabi-gcc/4.8.3-2014q1/bin/../lib/gcc/arm-none-eabi/4.8.3/armv6-m\libgcc.a(adddf3.o)
 .data          0x00000000        0x0 c:/programdata/matlab/supportpackages/r2020b/3p.instrset/arduinoide.instrset/tools/arm-none-eabi-gcc/4.8.3-2014q1/bin/../lib/gcc/arm-none-eabi/4.8.3/armv6-m\libgcc.a(divdf3.o)
 .bss           0x00000000        0x0 c:/programdata/matlab/supportpackages/r2020b/3p.instrset/arduinoide.instrset/tools/arm-none-eabi-gcc/4.8.3-2014q1/bin/../lib/gcc/arm-none-eabi/4.8.3/armv6-m\libgcc.a(divdf3.o)
 .data          0x00000000        0x0 c:/programdata/matlab/supportpackages/r2020b/3p.instrset/arduinoide.instrset/tools/arm-none-eabi-gcc/4.8.3-2014q1/bin/../lib/gcc/arm-none-eabi/4.8.3/armv6-m\libgcc.a(eqdf2.o)
 .bss           0x00000000        0x0 c:/programdata/matlab/supportpackages/r2020b/3p.instrset/arduinoide.instrset/tools/arm-none-eabi-gcc/4.8.3-2014q1/bin/../lib/gcc/arm-none-eabi/4.8.3/armv6-m\libgcc.a(eqdf2.o)
 .data          0x00000000        0x0 c:/programdata/matlab/supportpackages/r2020b/3p.instrset/arduinoide.instrset/tools/arm-none-eabi-gcc/4.8.3-2014q1/bin/../lib/gcc/arm-none-eabi/4.8.3/armv6-m\libgcc.a(gedf2.o)
 .bss           0x00000000        0x0 c:/programdata/matlab/supportpackages/r2020b/3p.instrset/arduinoide.instrset/tools/arm-none-eabi-gcc/4.8.3-2014q1/bin/../lib/gcc/arm-none-eabi/4.8.3/armv6-m\libgcc.a(gedf2.o)
 .data          0x00000000        0x0 c:/programdata/matlab/supportpackages/r2020b/3p.instrset/arduinoide.instrset/tools/arm-none-eabi-gcc/4.8.3-2014q1/bin/../lib/gcc/arm-none-eabi/4.8.3/armv6-m\libgcc.a(ledf2.o)
 .bss           0x00000000        0x0 c:/programdata/matlab/supportpackages/r2020b/3p.instrset/arduinoide.instrset/tools/arm-none-eabi-gcc/4.8.3-2014q1/bin/../lib/gcc/arm-none-eabi/4.8.3/armv6-m\libgcc.a(ledf2.o)
 .data          0x00000000        0x0 c:/programdata/matlab/supportpackages/r2020b/3p.instrset/arduinoide.instrset/tools/arm-none-eabi-gcc/4.8.3-2014q1/bin/../lib/gcc/arm-none-eabi/4.8.3/armv6-m\libgcc.a(muldf3.o)
 .bss           0x00000000        0x0 c:/programdata/matlab/supportpackages/r2020b/3p.instrset/arduinoide.instrset/tools/arm-none-eabi-gcc/4.8.3-2014q1/bin/../lib/gcc/arm-none-eabi/4.8.3/armv6-m\libgcc.a(muldf3.o)
 .data          0x00000000        0x0 c:/programdata/matlab/supportpackages/r2020b/3p.instrset/arduinoide.instrset/tools/arm-none-eabi-gcc/4.8.3-2014q1/bin/../lib/gcc/arm-none-eabi/4.8.3/armv6-m\libgcc.a(subdf3.o)
 .bss           0x00000000        0x0 c:/programdata/matlab/supportpackages/r2020b/3p.instrset/arduinoide.instrset/tools/arm-none-eabi-gcc/4.8.3-2014q1/bin/../lib/gcc/arm-none-eabi/4.8.3/armv6-m\libgcc.a(subdf3.o)
 .data          0x00000000        0x0 c:/programdata/matlab/supportpackages/r2020b/3p.instrset/arduinoide.instrset/tools/arm-none-eabi-gcc/4.8.3-2014q1/bin/../lib/gcc/arm-none-eabi/4.8.3/armv6-m\libgcc.a(fixdfsi.o)
 .bss           0x00000000        0x0 c:/programdata/matlab/supportpackages/r2020b/3p.instrset/arduinoide.instrset/tools/arm-none-eabi-gcc/4.8.3-2014q1/bin/../lib/gcc/arm-none-eabi/4.8.3/armv6-m\libgcc.a(fixdfsi.o)
 .data          0x00000000        0x0 c:/programdata/matlab/supportpackages/r2020b/3p.instrset/arduinoide.instrset/tools/arm-none-eabi-gcc/4.8.3-2014q1/bin/../lib/gcc/arm-none-eabi/4.8.3/armv6-m\libgcc.a(floatunsidf.o)
 .bss           0x00000000        0x0 c:/programdata/matlab/supportpackages/r2020b/3p.instrset/arduinoide.instrset/tools/arm-none-eabi-gcc/4.8.3-2014q1/bin/../lib/gcc/arm-none-eabi/4.8.3/armv6-m\libgcc.a(floatunsidf.o)
 .data          0x00000000        0x0 c:/programdata/matlab/supportpackages/r2020b/3p.instrset/arduinoide.instrset/tools/arm-none-eabi-gcc/4.8.3-2014q1/bin/../lib/gcc/arm-none-eabi/4.8.3/armv6-m\libgcc.a(_clzsi2.o)
 .bss           0x00000000        0x0 c:/programdata/matlab/supportpackages/r2020b/3p.instrset/arduinoide.instrset/tools/arm-none-eabi-gcc/4.8.3-2014q1/bin/../lib/gcc/arm-none-eabi/4.8.3/armv6-m\libgcc.a(_clzsi2.o)
 .text          0x00000000        0x0 c:/programdata/matlab/supportpackages/r2020b/3p.instrset/arduinoide.instrset/tools/arm-none-eabi-gcc/4.8.3-2014q1/bin/../lib/gcc/arm-none-eabi/4.8.3/../../../../arm-none-eabi/lib/armv6-m\libg_s.a(lib_a-errno.o)
 .data          0x00000000        0x0 c:/programdata/matlab/supportpackages/r2020b/3p.instrset/arduinoide.instrset/tools/arm-none-eabi-gcc/4.8.3-2014q1/bin/../lib/gcc/arm-none-eabi/4.8.3/../../../../arm-none-eabi/lib/armv6-m\libg_s.a(lib_a-errno.o)
 .bss           0x00000000        0x0 c:/programdata/matlab/supportpackages/r2020b/3p.instrset/arduinoide.instrset/tools/arm-none-eabi-gcc/4.8.3-2014q1/bin/../lib/gcc/arm-none-eabi/4.8.3/../../../../arm-none-eabi/lib/armv6-m\libg_s.a(lib_a-errno.o)
 .text          0x00000000        0x0 c:/programdata/matlab/supportpackages/r2020b/3p.instrset/arduinoide.instrset/tools/arm-none-eabi-gcc/4.8.3-2014q1/bin/../lib/gcc/arm-none-eabi/4.8.3/../../../../arm-none-eabi/lib/armv6-m\libg_s.a(lib_a-exit.o)
 .data          0x00000000        0x0 c:/programdata/matlab/supportpackages/r2020b/3p.instrset/arduinoide.instrset/tools/arm-none-eabi-gcc/4.8.3-2014q1/bin/../lib/gcc/arm-none-eabi/4.8.3/../../../../arm-none-eabi/lib/armv6-m\libg_s.a(lib_a-exit.o)
 .bss           0x00000000        0x0 c:/programdata/matlab/supportpackages/r2020b/3p.instrset/arduinoide.instrset/tools/arm-none-eabi-gcc/4.8.3-2014q1/bin/../lib/gcc/arm-none-eabi/4.8.3/../../../../arm-none-eabi/lib/armv6-m\libg_s.a(lib_a-exit.o)
 .text          0x00000000        0x0 c:/programdata/matlab/supportpackages/r2020b/3p.instrset/arduinoide.instrset/tools/arm-none-eabi-gcc/4.8.3-2014q1/bin/../lib/gcc/arm-none-eabi/4.8.3/../../../../arm-none-eabi/lib/armv6-m\libg_s.a(lib_a-impure.o)
 .data          0x00000000        0x0 c:/programdata/matlab/supportpackages/r2020b/3p.instrset/arduinoide.instrset/tools/arm-none-eabi-gcc/4.8.3-2014q1/bin/../lib/gcc/arm-none-eabi/4.8.3/../../../../arm-none-eabi/lib/armv6-m\libg_s.a(lib_a-impure.o)
 .bss           0x00000000        0x0 c:/programdata/matlab/supportpackages/r2020b/3p.instrset/arduinoide.instrset/tools/arm-none-eabi-gcc/4.8.3-2014q1/bin/../lib/gcc/arm-none-eabi/4.8.3/../../../../arm-none-eabi/lib/armv6-m\libg_s.a(lib_a-impure.o)
 .text          0x00000000        0x0 c:/programdata/matlab/supportpackages/r2020b/3p.instrset/arduinoide.instrset/tools/arm-none-eabi-gcc/4.8.3-2014q1/bin/../lib/gcc/arm-none-eabi/4.8.3/../../../../arm-none-eabi/lib/armv6-m\libg_s.a(lib_a-init.o)
 .data          0x00000000        0x0 c:/programdata/matlab/supportpackages/r2020b/3p.instrset/arduinoide.instrset/tools/arm-none-eabi-gcc/4.8.3-2014q1/bin/../lib/gcc/arm-none-eabi/4.8.3/../../../../arm-none-eabi/lib/armv6-m\libg_s.a(lib_a-init.o)
 .bss           0x00000000        0x0 c:/programdata/matlab/supportpackages/r2020b/3p.instrset/arduinoide.instrset/tools/arm-none-eabi-gcc/4.8.3-2014q1/bin/../lib/gcc/arm-none-eabi/4.8.3/../../../../arm-none-eabi/lib/armv6-m\libg_s.a(lib_a-init.o)
 .text          0x00000000        0x0 c:/programdata/matlab/supportpackages/r2020b/3p.instrset/arduinoide.instrset/tools/arm-none-eabi-gcc/4.8.3-2014q1/bin/../lib/gcc/arm-none-eabi/4.8.3/../../../../arm-none-eabi/lib/armv6-m\libg_s.a(lib_a-malloc.o)
 .data          0x00000000        0x0 c:/programdata/matlab/supportpackages/r2020b/3p.instrset/arduinoide.instrset/tools/arm-none-eabi-gcc/4.8.3-2014q1/bin/../lib/gcc/arm-none-eabi/4.8.3/../../../../arm-none-eabi/lib/armv6-m\libg_s.a(lib_a-malloc.o)
 .bss           0x00000000        0x0 c:/programdata/matlab/supportpackages/r2020b/3p.instrset/arduinoide.instrset/tools/arm-none-eabi-gcc/4.8.3-2014q1/bin/../lib/gcc/arm-none-eabi/4.8.3/../../../../arm-none-eabi/lib/armv6-m\libg_s.a(lib_a-malloc.o)
 .text          0x00000000        0x0 c:/programdata/matlab/supportpackages/r2020b/3p.instrset/arduinoide.instrset/tools/arm-none-eabi-gcc/4.8.3-2014q1/bin/../lib/gcc/arm-none-eabi/4.8.3/../../../../arm-none-eabi/lib/armv6-m\libg_s.a(lib_a-memcpy-stub.o)
 .data          0x00000000        0x0 c:/programdata/matlab/supportpackages/r2020b/3p.instrset/arduinoide.instrset/tools/arm-none-eabi-gcc/4.8.3-2014q1/bin/../lib/gcc/arm-none-eabi/4.8.3/../../../../arm-none-eabi/lib/armv6-m\libg_s.a(lib_a-memcpy-stub.o)
 .bss           0x00000000        0x0 c:/programdata/matlab/supportpackages/r2020b/3p.instrset/arduinoide.instrset/tools/arm-none-eabi-gcc/4.8.3-2014q1/bin/../lib/gcc/arm-none-eabi/4.8.3/../../../../arm-none-eabi/lib/armv6-m\libg_s.a(lib_a-memcpy-stub.o)
 .text          0x00000000        0x0 c:/programdata/matlab/supportpackages/r2020b/3p.instrset/arduinoide.instrset/tools/arm-none-eabi-gcc/4.8.3-2014q1/bin/../lib/gcc/arm-none-eabi/4.8.3/../../../../arm-none-eabi/lib/armv6-m\libg_s.a(lib_a-memset.o)
 .data          0x00000000        0x0 c:/programdata/matlab/supportpackages/r2020b/3p.instrset/arduinoide.instrset/tools/arm-none-eabi-gcc/4.8.3-2014q1/bin/../lib/gcc/arm-none-eabi/4.8.3/../../../../arm-none-eabi/lib/armv6-m\libg_s.a(lib_a-memset.o)
 .bss           0x00000000        0x0 c:/programdata/matlab/supportpackages/r2020b/3p.instrset/arduinoide.instrset/tools/arm-none-eabi-gcc/4.8.3-2014q1/bin/../lib/gcc/arm-none-eabi/4.8.3/../../../../arm-none-eabi/lib/armv6-m\libg_s.a(lib_a-memset.o)
 .text          0x00000000        0x0 c:/programdata/matlab/supportpackages/r2020b/3p.instrset/arduinoide.instrset/tools/arm-none-eabi-gcc/4.8.3-2014q1/bin/../lib/gcc/arm-none-eabi/4.8.3/../../../../arm-none-eabi/lib/armv6-m\libg_s.a(lib_a-nano-freer.o)
 .data          0x00000000        0x0 c:/programdata/matlab/supportpackages/r2020b/3p.instrset/arduinoide.instrset/tools/arm-none-eabi-gcc/4.8.3-2014q1/bin/../lib/gcc/arm-none-eabi/4.8.3/../../../../arm-none-eabi/lib/armv6-m\libg_s.a(lib_a-nano-freer.o)
 .bss           0x00000000        0x0 c:/programdata/matlab/supportpackages/r2020b/3p.instrset/arduinoide.instrset/tools/arm-none-eabi-gcc/4.8.3-2014q1/bin/../lib/gcc/arm-none-eabi/4.8.3/../../../../arm-none-eabi/lib/armv6-m\libg_s.a(lib_a-nano-freer.o)
 .text          0x00000000        0x0 c:/programdata/matlab/supportpackages/r2020b/3p.instrset/arduinoide.instrset/tools/arm-none-eabi-gcc/4.8.3-2014q1/bin/../lib/gcc/arm-none-eabi/4.8.3/../../../../arm-none-eabi/lib/armv6-m\libg_s.a(lib_a-nano-mallocr.o)
 .data          0x00000000        0x0 c:/programdata/matlab/supportpackages/r2020b/3p.instrset/arduinoide.instrset/tools/arm-none-eabi-gcc/4.8.3-2014q1/bin/../lib/gcc/arm-none-eabi/4.8.3/../../../../arm-none-eabi/lib/armv6-m\libg_s.a(lib_a-nano-mallocr.o)
 .bss           0x00000000        0x0 c:/programdata/matlab/supportpackages/r2020b/3p.instrset/arduinoide.instrset/tools/arm-none-eabi-gcc/4.8.3-2014q1/bin/../lib/gcc/arm-none-eabi/4.8.3/../../../../arm-none-eabi/lib/armv6-m\libg_s.a(lib_a-nano-mallocr.o)
 .text          0x00000000        0x0 c:/programdata/matlab/supportpackages/r2020b/3p.instrset/arduinoide.instrset/tools/arm-none-eabi-gcc/4.8.3-2014q1/bin/../lib/gcc/arm-none-eabi/4.8.3/../../../../arm-none-eabi/lib/armv6-m\libg_s.a(lib_a-sbrkr.o)
 .data          0x00000000        0x0 c:/programdata/matlab/supportpackages/r2020b/3p.instrset/arduinoide.instrset/tools/arm-none-eabi-gcc/4.8.3-2014q1/bin/../lib/gcc/arm-none-eabi/4.8.3/../../../../arm-none-eabi/lib/armv6-m\libg_s.a(lib_a-sbrkr.o)
 .bss           0x00000000        0x0 c:/programdata/matlab/supportpackages/r2020b/3p.instrset/arduinoide.instrset/tools/arm-none-eabi-gcc/4.8.3-2014q1/bin/../lib/gcc/arm-none-eabi/4.8.3/../../../../arm-none-eabi/lib/armv6-m\libg_s.a(lib_a-sbrkr.o)
 .text          0x00000000        0x0 c:/programdata/matlab/supportpackages/r2020b/3p.instrset/arduinoide.instrset/tools/arm-none-eabi-gcc/4.8.3-2014q1/bin/../lib/gcc/arm-none-eabi/4.8.3/../../../../arm-none-eabi/lib/armv6-m\libg_s.a(lib_a-strlen.o)
 .data          0x00000000        0x0 c:/programdata/matlab/supportpackages/r2020b/3p.instrset/arduinoide.instrset/tools/arm-none-eabi-gcc/4.8.3-2014q1/bin/../lib/gcc/arm-none-eabi/4.8.3/../../../../arm-none-eabi/lib/armv6-m\libg_s.a(lib_a-strlen.o)
 .bss           0x00000000        0x0 c:/programdata/matlab/supportpackages/r2020b/3p.instrset/arduinoide.instrset/tools/arm-none-eabi-gcc/4.8.3-2014q1/bin/../lib/gcc/arm-none-eabi/4.8.3/../../../../arm-none-eabi/lib/armv6-m\libg_s.a(lib_a-strlen.o)
 .text          0x00000000        0x0 c:/programdata/matlab/supportpackages/r2020b/3p.instrset/arduinoide.instrset/tools/arm-none-eabi-gcc/4.8.3-2014q1/bin/../lib/gcc/arm-none-eabi/4.8.3/../../../../arm-none-eabi/lib/armv6-m\libg_s.a(lib_a-reent.o)
 .data          0x00000000        0x0 c:/programdata/matlab/supportpackages/r2020b/3p.instrset/arduinoide.instrset/tools/arm-none-eabi-gcc/4.8.3-2014q1/bin/../lib/gcc/arm-none-eabi/4.8.3/../../../../arm-none-eabi/lib/armv6-m\libg_s.a(lib_a-reent.o)
 .bss           0x00000000        0x0 c:/programdata/matlab/supportpackages/r2020b/3p.instrset/arduinoide.instrset/tools/arm-none-eabi-gcc/4.8.3-2014q1/bin/../lib/gcc/arm-none-eabi/4.8.3/../../../../arm-none-eabi/lib/armv6-m\libg_s.a(lib_a-reent.o)
 .text.cleanup_glue
                0x00000000       0x1a c:/programdata/matlab/supportpackages/r2020b/3p.instrset/arduinoide.instrset/tools/arm-none-eabi-gcc/4.8.3-2014q1/bin/../lib/gcc/arm-none-eabi/4.8.3/../../../../arm-none-eabi/lib/armv6-m\libg_s.a(lib_a-reent.o)
 .text._reclaim_reent
                0x00000000       0xcc c:/programdata/matlab/supportpackages/r2020b/3p.instrset/arduinoide.instrset/tools/arm-none-eabi-gcc/4.8.3-2014q1/bin/../lib/gcc/arm-none-eabi/4.8.3/../../../../arm-none-eabi/lib/armv6-m\libg_s.a(lib_a-reent.o)
 .text          0x00000000        0x0 c:/programdata/matlab/supportpackages/r2020b/3p.instrset/arduinoide.instrset/tools/arm-none-eabi-gcc/4.8.3-2014q1/bin/../lib/gcc/arm-none-eabi/4.8.3/../../../../arm-none-eabi/lib/armv6-m\libnosys.a(sbrk.o)
 .data          0x00000000        0x0 c:/programdata/matlab/supportpackages/r2020b/3p.instrset/arduinoide.instrset/tools/arm-none-eabi-gcc/4.8.3-2014q1/bin/../lib/gcc/arm-none-eabi/4.8.3/../../../../arm-none-eabi/lib/armv6-m\libnosys.a(sbrk.o)
 .bss           0x00000000        0x0 c:/programdata/matlab/supportpackages/r2020b/3p.instrset/arduinoide.instrset/tools/arm-none-eabi-gcc/4.8.3-2014q1/bin/../lib/gcc/arm-none-eabi/4.8.3/../../../../arm-none-eabi/lib/armv6-m\libnosys.a(sbrk.o)
 .text          0x00000000        0x0 c:/programdata/matlab/supportpackages/r2020b/3p.instrset/arduinoide.instrset/tools/arm-none-eabi-gcc/4.8.3-2014q1/bin/../lib/gcc/arm-none-eabi/4.8.3/../../../../arm-none-eabi/lib/armv6-m\libnosys.a(_exit.o)
 .data          0x00000000        0x0 c:/programdata/matlab/supportpackages/r2020b/3p.instrset/arduinoide.instrset/tools/arm-none-eabi-gcc/4.8.3-2014q1/bin/../lib/gcc/arm-none-eabi/4.8.3/../../../../arm-none-eabi/lib/armv6-m\libnosys.a(_exit.o)
 .bss           0x00000000        0x0 c:/programdata/matlab/supportpackages/r2020b/3p.instrset/arduinoide.instrset/tools/arm-none-eabi-gcc/4.8.3-2014q1/bin/../lib/gcc/arm-none-eabi/4.8.3/../../../../arm-none-eabi/lib/armv6-m\libnosys.a(_exit.o)
 .text          0x00000000        0x0 c:/programdata/matlab/supportpackages/r2020b/3p.instrset/arduinoide.instrset/tools/arm-none-eabi-gcc/4.8.3-2014q1/bin/../lib/gcc/arm-none-eabi/4.8.3/armv6-m/crtend.o
 .data          0x00000000        0x0 c:/programdata/matlab/supportpackages/r2020b/3p.instrset/arduinoide.instrset/tools/arm-none-eabi-gcc/4.8.3-2014q1/bin/../lib/gcc/arm-none-eabi/4.8.3/armv6-m/crtend.o
 .bss           0x00000000        0x0 c:/programdata/matlab/supportpackages/r2020b/3p.instrset/arduinoide.instrset/tools/arm-none-eabi-gcc/4.8.3-2014q1/bin/../lib/gcc/arm-none-eabi/4.8.3/armv6-m/crtend.o
 .text          0x00000000        0x0 c:/programdata/matlab/supportpackages/r2020b/3p.instrset/arduinoide.instrset/tools/arm-none-eabi-gcc/4.8.3-2014q1/bin/../lib/gcc/arm-none-eabi/4.8.3/armv6-m/crtn.o
 .data          0x00000000        0x0 c:/programdata/matlab/supportpackages/r2020b/3p.instrset/arduinoide.instrset/tools/arm-none-eabi-gcc/4.8.3-2014q1/bin/../lib/gcc/arm-none-eabi/4.8.3/armv6-m/crtn.o
 .bss           0x00000000        0x0 c:/programdata/matlab/supportpackages/r2020b/3p.instrset/arduinoide.instrset/tools/arm-none-eabi-gcc/4.8.3-2014q1/bin/../lib/gcc/arm-none-eabi/4.8.3/armv6-m/crtn.o

Memory Configuration

Name             Origin             Length             Attributes
FLASH            0x00002000         0x0003e000         xr
RAM              0x20000000         0x00008000         xrw
*default*        0x00000000         0xffffffff

Linker script and memory map

LOAD c:/programdata/matlab/supportpackages/r2020b/3p.instrset/arduinoide.instrset/tools/arm-none-eabi-gcc/4.8.3-2014q1/bin/../lib/gcc/arm-none-eabi/4.8.3/armv6-m/crti.o
LOAD c:/programdata/matlab/supportpackages/r2020b/3p.instrset/arduinoide.instrset/tools/arm-none-eabi-gcc/4.8.3-2014q1/bin/../lib/gcc/arm-none-eabi/4.8.3/armv6-m/crtbegin.o
LOAD c:/programdata/matlab/supportpackages/r2020b/3p.instrset/arduinoide.instrset/tools/arm-none-eabi-gcc/4.8.3-2014q1/bin/../lib/gcc/arm-none-eabi/4.8.3/../../../../arm-none-eabi/lib/armv6-m/crt0.o
START GROUP
LOAD C:/ProgramData/MATLAB/SupportPackages/R2020b/3P.instrset/arduinoide.instrset/portable/packages/arduino/tools/CMSIS/4.5.0/CMSIS/Lib/GCC\libarm_cortexM0l_math.a
LOAD MW_PWM.o
LOAD MW_PWMDriver.o
LOAD ArduinoPinHandleMap.o
LOAD xcp_ext_work.o
LOAD physicalmotortest.o
LOAD physicalmotortest_data.o
LOAD xcp_ext_common.o
LOAD xcp_ext_classic_trigger.o
LOAD xcp.o
LOAD xcp_standard.o
LOAD xcp_daq.o
LOAD xcp_calibration.o
LOAD xcp_fifo.o
LOAD xcp_transport.o
LOAD xcp_mem_default.o
LOAD xcp_drv_rtiostream.o
LOAD xcp_frame_serial.o
LOAD xcp_ext_param_default_serial.o
LOAD MW_ArduinoHWInit.o
LOAD io_wrappers.o
LOAD arduinoARM_M0plusScheduler.o
LOAD m0m1m0plus_multitasking.o
LOAD rtiostream_serial_daemon.o
LOAD sys_arch.o
LOAD ert_main.o
LOAD C:/Users/Ege/DOCUME~1/MATLAB/R2020b/ARDUIN~1/ARDUIN~1/FASTER~2/MW_RebuildSrc_Core.o
END GROUP
LOAD c:/programdata/matlab/supportpackages/r2020b/3p.instrset/arduinoide.instrset/tools/arm-none-eabi-gcc/4.8.3-2014q1/bin/../lib/gcc/arm-none-eabi/4.8.3/../../../../arm-none-eabi/lib/armv6-m\libm.a
LOAD C:/Users/Ege/DOCUME~1/MATLAB/R2020b/ARDUIN~1/ARDUIN~1/FASTER~2\libcore.a
START GROUP
LOAD c:/programdata/matlab/supportpackages/r2020b/3p.instrset/arduinoide.instrset/tools/arm-none-eabi-gcc/4.8.3-2014q1/bin/../lib/gcc/arm-none-eabi/4.8.3/armv6-m\libgcc.a
LOAD c:/programdata/matlab/supportpackages/r2020b/3p.instrset/arduinoide.instrset/tools/arm-none-eabi-gcc/4.8.3-2014q1/bin/../lib/gcc/arm-none-eabi/4.8.3/../../../../arm-none-eabi/lib/armv6-m\libg_s.a
LOAD c:/programdata/matlab/supportpackages/r2020b/3p.instrset/arduinoide.instrset/tools/arm-none-eabi-gcc/4.8.3-2014q1/bin/../lib/gcc/arm-none-eabi/4.8.3/../../../../arm-none-eabi/lib/armv6-m\libc_s.a
END GROUP
START GROUP
LOAD c:/programdata/matlab/supportpackages/r2020b/3p.instrset/arduinoide.instrset/tools/arm-none-eabi-gcc/4.8.3-2014q1/bin/../lib/gcc/arm-none-eabi/4.8.3/armv6-m\libgcc.a
LOAD c:/programdata/matlab/supportpackages/r2020b/3p.instrset/arduinoide.instrset/tools/arm-none-eabi-gcc/4.8.3-2014q1/bin/../lib/gcc/arm-none-eabi/4.8.3/../../../../arm-none-eabi/lib/armv6-m\libc_s.a
LOAD c:/programdata/matlab/supportpackages/r2020b/3p.instrset/arduinoide.instrset/tools/arm-none-eabi-gcc/4.8.3-2014q1/bin/../lib/gcc/arm-none-eabi/4.8.3/../../../../arm-none-eabi/lib/armv6-m\libnosys.a
END GROUP
START GROUP
LOAD c:/programdata/matlab/supportpackages/r2020b/3p.instrset/arduinoide.instrset/tools/arm-none-eabi-gcc/4.8.3-2014q1/bin/../lib/gcc/arm-none-eabi/4.8.3/armv6-m\libgcc.a
LOAD c:/programdata/matlab/supportpackages/r2020b/3p.instrset/arduinoide.instrset/tools/arm-none-eabi-gcc/4.8.3-2014q1/bin/../lib/gcc/arm-none-eabi/4.8.3/../../../../arm-none-eabi/lib/armv6-m\libc_s.a
LOAD c:/programdata/matlab/supportpackages/r2020b/3p.instrset/arduinoide.instrset/tools/arm-none-eabi-gcc/4.8.3-2014q1/bin/../lib/gcc/arm-none-eabi/4.8.3/../../../../arm-none-eabi/lib/armv6-m\libnosys.a
END GROUP
LOAD c:/programdata/matlab/supportpackages/r2020b/3p.instrset/arduinoide.instrset/tools/arm-none-eabi-gcc/4.8.3-2014q1/bin/../lib/gcc/arm-none-eabi/4.8.3/armv6-m/crtend.o
LOAD c:/programdata/matlab/supportpackages/r2020b/3p.instrset/arduinoide.instrset/tools/arm-none-eabi-gcc/4.8.3-2014q1/bin/../lib/gcc/arm-none-eabi/4.8.3/armv6-m/crtn.o

.text           0x00002000     0x7bc4
                0x00002000                __text_start__ = .
 *(.isr_vector)
 .isr_vector    0x00002000       0xb4 C:/Users/Ege/DOCUME~1/MATLAB/R2020b/ARDUIN~1/ARDUIN~1/FASTER~2\libcore.a(cortex_handlers.o)
                0x00002000                exception_table
 *(.text*)
 .text          0x000020b4       0x60 c:/programdata/matlab/supportpackages/r2020b/3p.instrset/arduinoide.instrset/tools/arm-none-eabi-gcc/4.8.3-2014q1/bin/../lib/gcc/arm-none-eabi/4.8.3/armv6-m/crtbegin.o
 .text.MW_PWM_Start
                0x00002114        0x2 MW_PWM.o
                0x00002114                MW_PWM_Start
 *fill*         0x00002116        0x2 
 .text.MW_PWM_SetDutyCycle
                0x00002118       0x50 MW_PWM.o
                0x00002118                MW_PWM_SetDutyCycle
 .text.MW_PWM_GetHandle
                0x00002168       0x24 MW_PWM.o
                0x00002168                MW_PWM_GetHandle
 .text.setPWMHandle
                0x0000218c       0x2c MW_PWM.o
                0x0000218c                setPWMHandle
 .text.MW_PWM_Open
                0x000021b8       0x58 MW_PWM.o
                0x000021b8                MW_PWM_Open
 .text.MW_PWM_Close
                0x00002210       0x14 MW_PWM.o
                0x00002210                MW_PWM_Close
 .text.MW_analogWrite
                0x00002224       0xd4 MW_PWMDriver.o
                0x00002224                MW_analogWrite
 .text.MW_setAnalogFrequency
                0x000022f8      0x13c MW_PWMDriver.o
                0x000022f8                MW_setAnalogFrequency
 .text.rtExtModeWaitForStartPkt
                0x00002434       0x78 xcp_ext_work.o
                0x00002434                rtExtModeWaitForStartPkt
 .text.rtExtModeOneStep
                0x000024ac       0x24 xcp_ext_work.o
                0x000024ac                rtExtModeOneStep
 .text.rtExtModeUpload
                0x000024d0       0x36 xcp_ext_work.o
                0x000024d0                rtExtModeUpload
 .text.rtExtModeCheckEndTrigger
                0x00002506        0x2 xcp_ext_work.o
                0x00002506                rtExtModeCheckEndTrigger
 .text.rtExtModeUploadCheckTrigger
                0x00002508        0x2 xcp_ext_work.o
                0x00002508                rtExtModeUploadCheckTrigger
 .text.rtExtModeCheckInit
                0x0000250a       0x16 xcp_ext_work.o
                0x0000250a                rtExtModeCheckInit
 .text.rtExtModeShutdown
                0x00002520        0xc xcp_ext_work.o
                0x00002520                rtExtModeShutdown
 *fill*         0x0000252c        0x4 
 .text.rtERTExtModeSetTFinal
                0x00002530       0x30 xcp_ext_work.o
                0x00002530                rtERTExtModeSetTFinal
 .text.rtSetTFinalForExtMode
                0x00002560        0x8 xcp_ext_work.o
                0x00002560                rtSetTFinalForExtMode
 .text.rtParseArgsForExtMode
                0x00002568        0x2 xcp_ext_work.o
                0x00002568                rtParseArgsForExtMode
 .text.rtERTExtModeStartMsg
                0x0000256a        0x2 xcp_ext_work.o
                0x0000256a                rtERTExtModeStartMsg
 *fill*         0x0000256c        0x4 
 .text.physicalmotortest_step
                0x00002570      0x110 physicalmotortest.o
                0x00002570                physicalmotortest_step
 .text.physicalmotortest_initialize
                0x00002680       0xb0 physicalmotortest.o
                0x00002680                physicalmotortest_initialize
 .text.physicalmotortest_terminate
                0x00002730       0x48 physicalmotortest.o
                0x00002730                physicalmotortest_terminate
 .text.xcpExtModeUpdateTime
                0x00002778       0xf0 xcp_ext_common.o
                0x00002778                xcpExtModeUpdateTime
 .text.xcpExtModeGetUpdatedTimestamp
                0x00002868       0x48 xcp_ext_common.o
                0x00002868                xcpExtModeGetUpdatedTimestamp
 .text.xcpExtModeInit
                0x000028b0       0x30 xcp_ext_common.o
                0x000028b0                xcpExtModeInit
 .text.xcpExtModeRunBackground
                0x000028e0       0x74 xcp_ext_common.o
                0x000028e0                xcpExtModeRunBackground
 *fill*         0x00002954        0x4 
 .text.xcpExtModeReset
                0x00002958       0xb8 xcp_ext_common.o
                0x00002958                xcpExtModeReset
 .text.xcpExtModeClassicTriggerInit
                0x00002a10       0x58 xcp_ext_classic_trigger.o
                0x00002a10                xcpExtModeClassicTriggerInit
 .text.xcpExtModeClassicTriggerEnabled
                0x00002a68      0x334 xcp_ext_classic_trigger.o
                0x00002a68                xcpExtModeClassicTriggerEnabled
 *fill*         0x00002d9c        0x4 
 .text.xcpExtModeClassicTriggerReset
                0x00002da0       0xb8 xcp_ext_classic_trigger.o
                0x00002da0                xcpExtModeClassicTriggerReset
 .text.unknownInputPacketHandler
                0x00002e58        0xa xcp.o
 .text.discardInputPacketHandler
                0x00002e62       0x12 xcp.o
 .text.genericOutputPacketHandler
                0x00002e74       0x58 xcp.o
                0x00002e74                genericOutputPacketHandler
 .text.xcpStatusSet
                0x00002ecc        0xc xcp.o
                0x00002ecc                xcpStatusSet
 .text.xcpSessionStatusGet
                0x00002ed8        0xc xcp.o
                0x00002ed8                xcpSessionStatusGet
 .text.xcpSessionStatusSetMask
                0x00002ee4       0x10 xcp.o
                0x00002ee4                xcpSessionStatusSetMask
 .text.xcpSessionStatusClearMask
                0x00002ef4       0x10 xcp.o
                0x00002ef4                xcpSessionStatusClearMask
 .text.xcpResourceProtectionStatusGet
                0x00002f04        0xc xcp.o
                0x00002f04                xcpResourceProtectionStatusGet
 .text.xcpSessionConfigurationIdGet
                0x00002f10        0xc xcp.o
                0x00002f10                xcpSessionConfigurationIdGet
 .text.xcpFindPacket
                0x00002f1c       0x2a xcp.o
                0x00002f1c                xcpFindPacket
 *fill*         0x00002f46        0x2 
 .text.xcpInit  0x00002f48       0x40 xcp.o
                0x00002f48                xcpInit
 .text.xcpRun   0x00002f88      0x178 xcp.o
                0x00002f88                xcpRun
 .text.xcpEventExternalTimestamp
                0x00003100       0x1c xcp.o
                0x00003100                xcpEventExternalTimestamp
 .text.xcpGetStatus
                0x0000311c        0xc xcp.o
                0x0000311c                xcpGetStatus
 .text.xcpReset
                0x00003128       0x28 xcp.o
                0x00003128                xcpReset
 .text.getStatusInputPacketHandler
                0x00003150        0x8 xcp_standard.o
 .text.getPacket
                0x00003158       0x10 xcp_standard.o
 .text.uploadInputPacketHandler
                0x00003168       0x2c xcp_standard.o
 .text.synchInputPacketHandler
                0x00003194       0x12 xcp_standard.o
 .text.getStatusOutputPacketHandler
                0x000031a6       0x2a xcp_standard.o
 .text.disconnectInputPacketHandler
                0x000031d0       0x24 xcp_standard.o
 .text.connectInputPacketHandler
                0x000031f4       0x34 xcp_standard.o
 .text.connectOutputPacketHandler
                0x00003228       0x3e xcp_standard.o
 *fill*         0x00003266        0x2 
 .text.xcpStandardInit
                0x00003268       0x10 xcp_standard.o
                0x00003268                xcpStandardInit
 .text.xcpStandardGetPacketLookup
                0x00003278        0xc xcp_standard.o
                0x00003278                xcpStandardGetPacketLookup
 .text.xcpStandardReset
                0x00003284        0xc xcp_standard.o
                0x00003284                xcpStandardReset
 .text.xcpStandardGetAddressFromMta
                0x00003290        0xc xcp_standard.o
                0x00003290                xcpStandardGetAddressFromMta
 .text.xcpStandardSetMta
                0x0000329c       0x1c xcp_standard.o
                0x0000329c                xcpStandardSetMta
 .text.shortUploadInputPacketHandler
                0x000032b8       0x54 xcp_standard.o
 .text.setMTAInputPacketHandler
                0x0000330c       0x36 xcp_standard.o
 *fill*         0x00003342        0x2 
 .text.xcpStandardIncrementMta
                0x00003344       0x10 xcp_standard.o
                0x00003344                xcpStandardIncrementMta
 .text.shortUploadOutputPacketHandler
                0x00003354       0x40 xcp_standard.o
 .text.uploadOutputPacketHandler
                0x00003394       0x40 xcp_standard.o
 .text.isActiveDaqList
                0x000033d4       0x20 xcp_daq.o
 .text.noActiveDaqLists
                0x000033f4       0x2c xcp_daq.o
 .text.isValidDaqPtr
                0x00003420       0x44 xcp_daq.o
 .text.setDaqPtrInputPacketHandler
                0x00003464       0x50 xcp_daq.o
 .text.writeDaqInputPacketHandler
                0x000034b4       0x94 xcp_daq.o
 .text.setDaqListModeInputPacketHandler
                0x00003548       0x84 xcp_daq.o
 .text.getDaqProcessorInfoInputPacketHandler
                0x000035cc        0x8 xcp_daq.o
 .text.getDaqResolutionInfoInputPacketHandler
                0x000035d4        0x8 xcp_daq.o
 .text.getDaqResolutionInfoOutputPacketHandler
                0x000035dc       0x28 xcp_daq.o
 .text.getDaqProcessorInfoOutputPacketHandler
                0x00003604       0x2a xcp_daq.o
 *fill*         0x0000362e        0x2 
 .text.getPacket
                0x00003630       0x10 xcp_daq.o
 .text.allocOdtEntryInputPacketHandler
                0x00003640       0x9c xcp_daq.o
 .text.allocOdtInputPacketHandler
                0x000036dc       0x80 xcp_daq.o
 .text.allocDaqInputPacketHandler
                0x0000375c       0x68 xcp_daq.o
 .text.createDaqReservedPool
                0x000037c4       0x48 xcp_daq.o
 .text.startStopSynchInputPacketHandler
                0x0000380c      0x124 xcp_daq.o
 .text.startStopDaqListInputPacketHandler
                0x00003930      0x194 xcp_daq.o
 .text.startStopDaqListOutputPacketHandler
                0x00003ac4       0x2c xcp_daq.o
 .text.xcpDaqInit
                0x00003af0       0x2c xcp_daq.o
                0x00003af0                xcpDaqInit
 .text.xcpDaqGetPacketLookup
                0x00003b1c        0xc xcp_daq.o
                0x00003b1c                xcpDaqGetPacketLookup
 .text.xcpDaqEvent
                0x00003b28      0x184 xcp_daq.o
                0x00003b28                xcpDaqEvent
 .text.xcpResetDaqListStatus
                0x00003cac       0xac xcp_daq.o
                0x00003cac                xcpResetDaqListStatus
 .text.freeDaqInputPacketHandler
                0x00003d58       0x24 xcp_daq.o
 .text.xcpDaqReset
                0x00003d7c       0x1c xcp_daq.o
                0x00003d7c                xcpDaqReset
 .text.getPacket
                0x00003d98       0x10 xcp_calibration.o
 .text.shortDownloadInputPacketHandler
                0x00003da8       0x5e xcp_calibration.o
 .text.downloadInputPacketHandler
                0x00003e06       0x3a xcp_calibration.o
 .text.xcpCalibrationInit
                0x00003e40       0x10 xcp_calibration.o
                0x00003e40                xcpCalibrationInit
 .text.xcpCalibrationGetPacketLookup
                0x00003e50        0xc xcp_calibration.o
                0x00003e50                xcpCalibrationGetPacketLookup
 .text.xcpCalibrationReset
                0x00003e5c        0x2 xcp_calibration.o
                0x00003e5c                xcpCalibrationReset
 .text.xcpFifoInit
                0x00003e5e        0x8 xcp_fifo.o
                0x00003e5e                xcpFifoInit
 .text.xcpFifoEnqueue
                0x00003e66        0xc xcp_fifo.o
                0x00003e66                xcpFifoEnqueue
 .text.xcpFifoDequeue
                0x00003e72       0x16 xcp_fifo.o
                0x00003e72                xcpFifoDequeue
 .text.xcpFifoEnqueueHead
                0x00003e88        0xe xcp_fifo.o
                0x00003e88                xcpFifoEnqueueHead
 .text.xcpFifoReset
                0x00003e96        0x8 xcp_fifo.o
                0x00003e96                xcpFifoReset
 *fill*         0x00003e9e        0x2 
 .text.xcpTransportEmptyTxFifo
                0x00003ea0       0x44 xcp_transport.o
 .text.xcpTransportEmptyRxFifo
                0x00003ee4       0x38 xcp_transport.o
 .text.xcpTransportTx
                0x00003f1c       0x80 xcp_transport.o
                0x00003f1c                xcpTransportTx
 .text.xcpTransportRx
                0x00003f9c       0x50 xcp_transport.o
                0x00003f9c                xcpTransportRx
 .text.xcpTransportPacketOffset
                0x00003fec        0xa xcp_transport.o
                0x00003fec                xcpTransportPacketOffset
 *fill*         0x00003ff6        0x2 
 .text.xcpTransportTxPacketSet
                0x00003ff8       0x80 xcp_transport.o
                0x00003ff8                xcpTransportTxPacketSet
 .text.xcpTransportRxPacketGet
                0x00004078       0x84 xcp_transport.o
                0x00004078                xcpTransportRxPacketGet
 .text.xcpTransportMsgBufferSize
                0x000040fc       0x2a xcp_transport.o
                0x000040fc                xcpTransportMsgBufferSize
 *fill*         0x00004126        0x2 
 .text.xcpTransportInit
                0x00004128       0x84 xcp_transport.o
                0x00004128                xcpTransportInit
 .text.xcpTransportMaxDtoSize
                0x000041ac        0x8 xcp_transport.o
                0x000041ac                xcpTransportMaxDtoSize
 .text.xcpTransportMaxCtoSize
                0x000041b4        0x8 xcp_transport.o
                0x000041b4                xcpTransportMaxCtoSize
 .text.xcpTransportRestart
                0x000041bc       0x16 xcp_transport.o
                0x000041bc                xcpTransportRestart
 .text.xcpTransportResynch
                0x000041d2       0x12 xcp_transport.o
                0x000041d2                xcpTransportResynch
 .text.xcpTransportCtoReservedMemPoolId
                0x000041e4        0xc xcp_transport.o
                0x000041e4                xcpTransportCtoReservedMemPoolId
 .text.xcpTransportReset
                0x000041f0       0x58 xcp_transport.o
                0x000041f0                xcpTransportReset
 .text.xcpInitializePoolMemoryArea
                0x00004248       0x28 xcp_mem_default.o
 .text.xcpMemInit
                0x00004270       0x8c xcp_mem_default.o
                0x00004270                xcpMemInit
 .text.xcpMemAlloc
                0x000042fc       0x74 xcp_mem_default.o
                0x000042fc                xcpMemAlloc
 .text.xcpMemFree
                0x00004370       0x3c xcp_mem_default.o
                0x00004370                xcpMemFree
 .text.xcpMemReservedPoolCreate
                0x000043ac       0xf0 xcp_mem_default.o
                0x000043ac                xcpMemReservedPoolCreate
 .text.xcpMemReservedPoolDestroy
                0x0000449c       0xa8 xcp_mem_default.o
                0x0000449c                xcpMemReservedPoolDestroy
 .text.xcpMemAllocFromPool
                0x00004544       0x5c xcp_mem_default.o
                0x00004544                xcpMemAllocFromPool
 .text.xcpMemReset
                0x000045a0       0x44 xcp_mem_default.o
                0x000045a0                xcpMemReset
 .text.xcpDrvOpen
                0x000045e4       0x24 xcp_drv_rtiostream.o
                0x000045e4                xcpDrvOpen
 .text.xcpDrvIoctl
                0x00004608       0x18 xcp_drv_rtiostream.o
                0x00004608                xcpDrvIoctl
 .text.xcpDrvSend
                0x00004620       0x94 xcp_drv_rtiostream.o
                0x00004620                xcpDrvSend
 .text.xcpDrvRecv
                0x000046b4       0x94 xcp_drv_rtiostream.o
                0x000046b4                xcpDrvRecv
 .text.xcpDrvClose
                0x00004748       0x28 xcp_drv_rtiostream.o
                0x00004748                xcpDrvClose
 .text.xcpSxiChecksum
                0x00004770       0x20 xcp_frame_serial.o
                0x00004770                xcpSxiChecksum
 .text.xcpFrameInit
                0x00004790       0x3c xcp_frame_serial.o
                0x00004790                xcpFrameInit
 .text.xcpFrameMsgSend
                0x000047cc       0xa4 xcp_frame_serial.o
                0x000047cc                xcpFrameMsgSend
 .text.xcpFrameMsgRecv
                0x00004870       0xbc xcp_frame_serial.o
                0x00004870                xcpFrameMsgRecv
 .text.xcpFrameCreateMsg
                0x0000492c       0x28 xcp_frame_serial.o
                0x0000492c                xcpFrameCreateMsg
 .text.xcpFrameExtractPacket
                0x00004954       0xa8 xcp_frame_serial.o
                0x00004954                xcpFrameExtractPacket
 .text.xcpFrameHeaderSize
                0x000049fc        0x4 xcp_frame_serial.o
                0x000049fc                xcpFrameHeaderSize
 .text.xcpFrameTailSize
                0x00004a00        0x4 xcp_frame_serial.o
                0x00004a00                xcpFrameTailSize
 .text.xcpFrameMaxDtoSize
                0x00004a04        0x8 xcp_frame_serial.o
                0x00004a04                xcpFrameMaxDtoSize
 .text.xcpFrameMaxCtoSize
                0x00004a0c        0x4 xcp_frame_serial.o
                0x00004a0c                xcpFrameMaxCtoSize
 .text.xcpFrameRestart
                0x00004a10       0x1c xcp_frame_serial.o
                0x00004a10                xcpFrameRestart
 .text.xcpFrameSetCtoReservedMemPoolId
                0x00004a2c        0xc xcp_frame_serial.o
                0x00004a2c                xcpFrameSetCtoReservedMemPoolId
 .text.xcpFrameReset
                0x00004a38       0x38 xcp_frame_serial.o
                0x00004a38                xcpFrameReset
 .text.xcpTransportGetInitParameters
                0x00004a70       0x10 xcp_ext_param_default_serial.o
                0x00004a70                xcpTransportGetInitParameters
 .text.xcpGetInitParameters
                0x00004a80       0x10 xcp_ext_param_default_serial.o
                0x00004a80                xcpGetInitParameters
 .text.MW_Arduino_Init
                0x00004a90        0xe MW_ArduinoHWInit.o
                0x00004a90                MW_Arduino_Init
 .text.MW_Arduino_Terminate
                0x00004a9e        0x8 MW_ArduinoHWInit.o
                0x00004a9e                MW_Arduino_Terminate
 *fill*         0x00004aa6        0x2 
 .text.MW_usbattach
                0x00004aa8       0x1c io_wrappers.o
                0x00004aa8                MW_usbattach
 .text.Serial_begin
                0x00004ac4       0x24 io_wrappers.o
                0x00004ac4                Serial_begin
 .text._ZL13Scheduler_Isrv
                0x00004ae8        0xc arduinoARM_M0plusScheduler.o
 .text.resetExternalChip
                0x00004af4        0x2 arduinoARM_M0plusScheduler.o
                0x00004af4                resetExternalChip
 *fill*         0x00004af6        0x2 
 .text.RTC_Handler
                0x00004af8       0x20 arduinoARM_M0plusScheduler.o
                0x00004af8                RTC_Handler
 .text.Setup_SchedulerRTC
                0x00004b18       0xac arduinoARM_M0plusScheduler.o
                0x00004b18                Setup_SchedulerRTC
 .text.configureArduinoARM_M0plusTimer
                0x00004bc4       0x14 arduinoARM_M0plusScheduler.o
                0x00004bc4                configureArduinoARM_M0plusTimer
 .text.disable_rt_OneStep
                0x00004bd8       0x14 arduinoARM_M0plusScheduler.o
                0x00004bd8                disable_rt_OneStep
 .text.MW_Arduino_Loop
                0x00004bec        0x4 arduinoARM_M0plusScheduler.o
                0x00004bec                MW_Arduino_Loop
 .text.arm_cortex_m_call_thread_with_context_switch
                0x00004bf0       0x24 m0m1m0plus_multitasking.o
                0x00004bf0                arm_cortex_m_call_thread_with_context_switch
 .text.SVC_Handler
                0x00004c14       0x2c m0m1m0plus_multitasking.o
                0x00004c14                SVC_Handler
 .text.rtIOStreamOpen
                0x00004c40       0x28 rtiostream_serial_daemon.o
                0x00004c40                rtIOStreamOpen
 .text.rtIOStreamRecv
                0x00004c68       0x64 rtiostream_serial_daemon.o
                0x00004c68                rtIOStreamRecv
 .text.rtIOStreamClose
                0x00004ccc       0x24 rtiostream_serial_daemon.o
                0x00004ccc                rtIOStreamClose
 .text.rtIOStreamSend
                0x00004cf0       0x18 rtiostream_serial_daemon.o
                0x00004cf0                rtIOStreamSend
 .text.sys_arch_protect
                0x00004d08        0x8 sys_arch.o
                0x00004d08                sys_arch_protect
 .text.sys_arch_unprotect
                0x00004d10        0x6 sys_arch.o
                0x00004d10                sys_arch_unprotect
 *fill*         0x00004d16        0x2 
 .text.rt_OneStep
                0x00004d18       0x38 ert_main.o
                0x00004d18                rt_OneStep
 .text.startup.main
                0x00004d50       0xfc ert_main.o
                0x00004d50                main
 *fill*         0x00004e4c        0x4 
 .text.fmod     0x00004e50       0xd0 c:/programdata/matlab/supportpackages/r2020b/3p.instrset/arduinoide.instrset/tools/arm-none-eabi-gcc/4.8.3-2014q1/bin/../lib/gcc/arm-none-eabi/4.8.3/../../../../arm-none-eabi/lib/armv6-m\libm.a(lib_a-w_fmod.o)
                0x00004e50                fmod
 .text.__ieee754_fmod
                0x00004f20      0x29c c:/programdata/matlab/supportpackages/r2020b/3p.instrset/arduinoide.instrset/tools/arm-none-eabi-gcc/4.8.3-2014q1/bin/../lib/gcc/arm-none-eabi/4.8.3/../../../../arm-none-eabi/lib/armv6-m\libm.a(lib_a-e_fmod.o)
                0x00004f20                __ieee754_fmod
 .text.__fpclassifyd
                0x000051bc       0x60 c:/programdata/matlab/supportpackages/r2020b/3p.instrset/arduinoide.instrset/tools/arm-none-eabi-gcc/4.8.3-2014q1/bin/../lib/gcc/arm-none-eabi/4.8.3/../../../../arm-none-eabi/lib/armv6-m\libm.a(lib_a-s_fpclassify.o)
                0x000051bc                __fpclassifyd
 .text.matherr  0x0000521c        0x4 c:/programdata/matlab/supportpackages/r2020b/3p.instrset/arduinoide.instrset/tools/arm-none-eabi-gcc/4.8.3-2014q1/bin/../lib/gcc/arm-none-eabi/4.8.3/../../../../arm-none-eabi/lib/armv6-m\libm.a(lib_a-s_matherr.o)
                0x0000521c                matherr
 .text.Dummy_Handler
                0x00005220        0x2 C:/Users/Ege/DOCUME~1/MATLAB/R2020b/ARDUIN~1/ARDUIN~1/FASTER~2\libcore.a(cortex_handlers.o)
                0x00005220                DMAC_Handler
                0x00005220                HardFault_Handler
                0x00005220                AC_Handler
                0x00005220                PendSV_Handler
                0x00005220                NMI_Handler
                0x00005220                TC7_Handler
                0x00005220                SERCOM1_Handler
                0x00005220                ADC_Handler
                0x00005220                TCC1_Handler
                0x00005220                TCC0_Handler
                0x00005220                EIC_Handler
                0x00005220                TC6_Handler
                0x00005220                WDT_Handler
                0x00005220                TC4_Handler
                0x00005220                TC3_Handler
                0x00005220                Dummy_Handler
                0x00005220                PM_Handler
                0x00005220                TCC2_Handler
                0x00005220                EVSYS_Handler
                0x00005220                SERCOM4_Handler
                0x00005220                I2S_Handler
                0x00005220                NVMCTRL_Handler
                0x00005220                SERCOM0_Handler
                0x00005220                DAC_Handler
                0x00005220                PTC_Handler
                0x00005220                SYSCTRL_Handler
 *fill*         0x00005222        0x2 
 .text.USB_Handler
                0x00005224       0x14 C:/Users/Ege/DOCUME~1/MATLAB/R2020b/ARDUIN~1/ARDUIN~1/FASTER~2\libcore.a(cortex_handlers.o)
                0x00005224                USB_Handler
 .text.Reset_Handler
                0x00005238       0x54 C:/Users/Ege/DOCUME~1/MATLAB/R2020b/ARDUIN~1/ARDUIN~1/FASTER~2\libcore.a(cortex_handlers.o)
                0x00005238                Reset_Handler
 .text.SysTick_Handler
                0x0000528c       0x10 C:/Users/Ege/DOCUME~1/MATLAB/R2020b/ARDUIN~1/ARDUIN~1/FASTER~2\libcore.a(cortex_handlers.o)
                0x0000528c                SysTick_Handler
 .text.USB_SetHandler
                0x0000529c        0xc C:/Users/Ege/DOCUME~1/MATLAB/R2020b/ARDUIN~1/ARDUIN~1/FASTER~2\libcore.a(cortex_handlers.o)
                0x0000529c                USB_SetHandler
 .text.__empty  0x000052a8        0x2 C:/Users/Ege/DOCUME~1/MATLAB/R2020b/ARDUIN~1/ARDUIN~1/FASTER~2\libcore.a(hooks.o)
                0x000052a8                yield
 .text.__false  0x000052aa        0x4 C:/Users/Ege/DOCUME~1/MATLAB/R2020b/ARDUIN~1/ARDUIN~1/FASTER~2\libcore.a(hooks.o)
                0x000052aa                sysTickHook
 *fill*         0x000052ae        0x2 
 .text.micros   0x000052b0       0x64 C:/Users/Ege/DOCUME~1/MATLAB/R2020b/ARDUIN~1/ARDUIN~1/FASTER~2\libcore.a(delay.o)
                0x000052b0                micros
 .text.delay    0x00005314       0x34 C:/Users/Ege/DOCUME~1/MATLAB/R2020b/ARDUIN~1/ARDUIN~1/FASTER~2\libcore.a(delay.o)
                0x00005314                delay
 .text.SysTick_DefaultHandler
                0x00005348       0x14 C:/Users/Ege/DOCUME~1/MATLAB/R2020b/ARDUIN~1/ARDUIN~1/FASTER~2\libcore.a(delay.o)
                0x00005348                SysTick_DefaultHandler
 .text.SystemInit
                0x0000535c      0x198 C:/Users/Ege/DOCUME~1/MATLAB/R2020b/ARDUIN~1/ARDUIN~1/FASTER~2\libcore.a(startup.o)
                0x0000535c                SystemInit
 .text.init     0x000054f4       0xf0 C:/Users/Ege/DOCUME~1/MATLAB/R2020b/ARDUIN~1/ARDUIN~1/FASTER~2\libcore.a(wiring.o)
                0x000054f4                init
 .text.mapResolution
                0x000055e4       0x12 C:/Users/Ege/DOCUME~1/MATLAB/R2020b/ARDUIN~1/ARDUIN~1/FASTER~2\libcore.a(wiring_analog.o)
 *fill*         0x000055f6        0x2 
 .text.analogReference
                0x000055f8       0x5c C:/Users/Ege/DOCUME~1/MATLAB/R2020b/ARDUIN~1/ARDUIN~1/FASTER~2\libcore.a(wiring_analog.o)
                0x000055f8                analogReference
 .text.analogWrite
                0x00005654      0x1e4 C:/Users/Ege/DOCUME~1/MATLAB/R2020b/ARDUIN~1/ARDUIN~1/FASTER~2\libcore.a(wiring_analog.o)
                0x00005654                analogWrite
 .text.pinMode  0x00005838       0xb4 C:/Users/Ege/DOCUME~1/MATLAB/R2020b/ARDUIN~1/ARDUIN~1/FASTER~2\libcore.a(wiring_digital.o)
                0x00005838                pinMode
 .text.digitalWrite
                0x000058ec       0x60 C:/Users/Ege/DOCUME~1/MATLAB/R2020b/ARDUIN~1/ARDUIN~1/FASTER~2\libcore.a(wiring_digital.o)
                0x000058ec                digitalWrite
 .text.pinPeripheral
                0x0000594c       0xc4 C:/Users/Ege/DOCUME~1/MATLAB/R2020b/ARDUIN~1/ARDUIN~1/FASTER~2\libcore.a(wiring_private.o)
                0x0000594c                pinPeripheral
 .text.initiateReset
                0x00005a10       0x14 C:/Users/Ege/DOCUME~1/MATLAB/R2020b/ARDUIN~1/ARDUIN~1/FASTER~2\libcore.a(Reset.o)
                0x00005a10                initiateReset
 .text.cancelReset
                0x00005a24       0x10 C:/Users/Ege/DOCUME~1/MATLAB/R2020b/ARDUIN~1/ARDUIN~1/FASTER~2\libcore.a(Reset.o)
                0x00005a24                cancelReset
 .text.tickReset
                0x00005a34       0x74 C:/Users/Ege/DOCUME~1/MATLAB/R2020b/ARDUIN~1/ARDUIN~1/FASTER~2\libcore.a(Reset.o)
                0x00005a34                tickReset
 .text._ZN4UartcvbEv
                0x00005aa8        0x4 C:/Users/Ege/DOCUME~1/MATLAB/R2020b/ARDUIN~1/ARDUIN~1/FASTER~2\libcore.a(Uart.o)
                0x00005aa8                Uart::operator bool()
 .text._ZN4Uart5beginEm
                0x00005aac       0x10 C:/Users/Ege/DOCUME~1/MATLAB/R2020b/ARDUIN~1/ARDUIN~1/FASTER~2\libcore.a(Uart.o)
                0x00005aac                Uart::begin(unsigned long)
 .text._ZN4Uart4peekEv
                0x00005abc       0x1a C:/Users/Ege/DOCUME~1/MATLAB/R2020b/ARDUIN~1/ARDUIN~1/FASTER~2\libcore.a(Uart.o)
                0x00005abc                Uart::peek()
 .text._ZN4Uart3endEv
                0x00005ad6       0x20 C:/Users/Ege/DOCUME~1/MATLAB/R2020b/ARDUIN~1/ARDUIN~1/FASTER~2\libcore.a(Uart.o)
                0x00005ad6                Uart::end()
 *fill*         0x00005af6        0x2 
 .text._ZN4UartC2EP6SERCOMhh11SercomRXPad15SercomUartTXPadhh
                0x00005af8       0xa4 C:/Users/Ege/DOCUME~1/MATLAB/R2020b/ARDUIN~1/ARDUIN~1/FASTER~2\libcore.a(Uart.o)
                0x00005af8                Uart::Uart(SERCOM*, unsigned char, unsigned char, SercomRXPad, SercomUartTXPad, unsigned char, unsigned char)
                0x00005af8                Uart::Uart(SERCOM*, unsigned char, unsigned char, SercomRXPad, SercomUartTXPad, unsigned char, unsigned char)
 .text._ZN4UartC2EP6SERCOMhh11SercomRXPad15SercomUartTXPad
                0x00005b9c       0x24 C:/Users/Ege/DOCUME~1/MATLAB/R2020b/ARDUIN~1/ARDUIN~1/FASTER~2\libcore.a(Uart.o)
                0x00005b9c                Uart::Uart(SERCOM*, unsigned char, unsigned char, SercomRXPad, SercomUartTXPad)
                0x00005b9c                Uart::Uart(SERCOM*, unsigned char, unsigned char, SercomRXPad, SercomUartTXPad)
 .text._ZN4Uart16extractNbStopBitEt
                0x00005bc0        0xe C:/Users/Ege/DOCUME~1/MATLAB/R2020b/ARDUIN~1/ARDUIN~1/FASTER~2\libcore.a(Uart.o)
                0x00005bc0                Uart::extractNbStopBit(unsigned short)
 .text._ZN4Uart15extractCharSizeEt
                0x00005bce       0x2c C:/Users/Ege/DOCUME~1/MATLAB/R2020b/ARDUIN~1/ARDUIN~1/FASTER~2\libcore.a(Uart.o)
                0x00005bce                Uart::extractCharSize(unsigned short)
 .text._ZN4Uart13extractParityEt
                0x00005bfa       0x18 C:/Users/Ege/DOCUME~1/MATLAB/R2020b/ARDUIN~1/ARDUIN~1/FASTER~2\libcore.a(Uart.o)
                0x00005bfa                Uart::extractParity(unsigned short)
 *fill*         0x00005c12        0x2 
 .text._ZN4Uart5beginEmt
                0x00005c14       0xf8 C:/Users/Ege/DOCUME~1/MATLAB/R2020b/ARDUIN~1/ARDUIN~1/FASTER~2\libcore.a(Uart.o)
                0x00005c14                Uart::begin(unsigned long, unsigned short)
 .text._ZN11RingBufferNILi256EE9availableEv
                0x00005d0c       0x12 C:/Users/Ege/DOCUME~1/MATLAB/R2020b/ARDUIN~1/ARDUIN~1/FASTER~2\libcore.a(Uart.o)
                0x00005d0c                RingBufferN<256>::available()
 .text._ZN4Uart5flushEv
                0x00005d1e       0x1a C:/Users/Ege/DOCUME~1/MATLAB/R2020b/ARDUIN~1/ARDUIN~1/FASTER~2\libcore.a(Uart.o)
                0x00005d1e                Uart::flush()
 .text._ZN4Uart9availableEv
                0x00005d38        0xa C:/Users/Ege/DOCUME~1/MATLAB/R2020b/ARDUIN~1/ARDUIN~1/FASTER~2\libcore.a(Uart.o)
                0x00005d38                Uart::available()
 .text._ZN11RingBufferNILi256EE17availableForStoreEv
                0x00005d42       0x1e C:/Users/Ege/DOCUME~1/MATLAB/R2020b/ARDUIN~1/ARDUIN~1/FASTER~2\libcore.a(Uart.o)
                0x00005d42                RingBufferN<256>::availableForStore()
 .text._ZN4Uart17availableForWriteEv
                0x00005d60        0xc C:/Users/Ege/DOCUME~1/MATLAB/R2020b/ARDUIN~1/ARDUIN~1/FASTER~2\libcore.a(Uart.o)
                0x00005d60                Uart::availableForWrite()
 .text._ZN4Uart10IrqHandlerEv
                0x00005d6c       0xc8 C:/Users/Ege/DOCUME~1/MATLAB/R2020b/ARDUIN~1/ARDUIN~1/FASTER~2\libcore.a(Uart.o)
                0x00005d6c                Uart::IrqHandler()
 .text._ZN4Uart5writeEh
                0x00005e34       0xb4 C:/Users/Ege/DOCUME~1/MATLAB/R2020b/ARDUIN~1/ARDUIN~1/FASTER~2\libcore.a(Uart.o)
                0x00005e34                Uart::write(unsigned char)
 .text._ZN4Uart4readEv
                0x00005ee8       0x4c C:/Users/Ege/DOCUME~1/MATLAB/R2020b/ARDUIN~1/ARDUIN~1/FASTER~2\libcore.a(Uart.o)
                0x00005ee8                Uart::read()
 .text._ZN7Serial_13getDescriptorER8USBSetup
                0x00005f34        0x4 C:/Users/Ege/DOCUME~1/MATLAB/R2020b/ARDUIN~1/ARDUIN~1/FASTER~2\libcore.a(CDC.o)
                0x00005f34                Serial_::getDescriptor(USBSetup&)
 .text._ZThn16_N7Serial_13getDescriptorER8USBSetup
                0x00005f38       0x10 C:/Users/Ege/DOCUME~1/MATLAB/R2020b/ARDUIN~1/ARDUIN~1/FASTER~2\libcore.a(CDC.o)
                0x00005f38                non-virtual thunk to Serial_::getDescriptor(USBSetup&)
 .text._ZL5utox8mPc
                0x00005f48       0x1c C:/Users/Ege/DOCUME~1/MATLAB/R2020b/ARDUIN~1/ARDUIN~1/FASTER~2\libcore.a(CDC.o)
 .text._ZN7Serial_12getShortNameEPc
                0x00005f64       0x44 C:/Users/Ege/DOCUME~1/MATLAB/R2020b/ARDUIN~1/ARDUIN~1/FASTER~2\libcore.a(CDC.o)
                0x00005f64                Serial_::getShortName(char*)
 .text._ZThn16_N7Serial_12getShortNameEPc
                0x00005fa8       0x10 C:/Users/Ege/DOCUME~1/MATLAB/R2020b/ARDUIN~1/ARDUIN~1/FASTER~2\libcore.a(CDC.o)
                0x00005fa8                non-virtual thunk to Serial_::getShortName(char*)
 .text._ZN7Serial_14handleEndpointEi
                0x00005fb8        0x2 C:/Users/Ege/DOCUME~1/MATLAB/R2020b/ARDUIN~1/ARDUIN~1/FASTER~2\libcore.a(CDC.o)
                0x00005fb8                Serial_::handleEndpoint(int)
 *fill*         0x00005fba        0x2 
 .text._ZThn16_N7Serial_14handleEndpointEi
                0x00005fbc       0x10 C:/Users/Ege/DOCUME~1/MATLAB/R2020b/ARDUIN~1/ARDUIN~1/FASTER~2\libcore.a(CDC.o)
                0x00005fbc                non-virtual thunk to Serial_::handleEndpoint(int)
 .text._ZN7Serial_17availableForWriteEv
                0x00005fcc        0x4 C:/Users/Ege/DOCUME~1/MATLAB/R2020b/ARDUIN~1/ARDUIN~1/FASTER~2\libcore.a(CDC.o)
                0x00005fcc                Serial_::availableForWrite()
 .text._ZN7Serial_5writeEh
                0x00005fd0       0x14 C:/Users/Ege/DOCUME~1/MATLAB/R2020b/ARDUIN~1/ARDUIN~1/FASTER~2\libcore.a(CDC.o)
                0x00005fd0                Serial_::write(unsigned char)
 .text._ZN7Serial_12getInterfaceEPh
                0x00005fe4      0x104 C:/Users/Ege/DOCUME~1/MATLAB/R2020b/ARDUIN~1/ARDUIN~1/FASTER~2\libcore.a(CDC.o)
                0x00005fe4                Serial_::getInterface(unsigned char*)
 .text._ZThn16_N7Serial_12getInterfaceEPh
                0x000060e8       0x10 C:/Users/Ege/DOCUME~1/MATLAB/R2020b/ARDUIN~1/ARDUIN~1/FASTER~2\libcore.a(CDC.o)
                0x000060e8                non-virtual thunk to Serial_::getInterface(unsigned char*)
 .text._ZN7Serial_5setupER8USBSetup
                0x000060f8       0x98 C:/Users/Ege/DOCUME~1/MATLAB/R2020b/ARDUIN~1/ARDUIN~1/FASTER~2\libcore.a(CDC.o)
                0x000060f8                Serial_::setup(USBSetup&)
 .text._ZThn16_N7Serial_5setupER8USBSetup
                0x00006190       0x10 C:/Users/Ege/DOCUME~1/MATLAB/R2020b/ARDUIN~1/ARDUIN~1/FASTER~2\libcore.a(CDC.o)
                0x00006190                non-virtual thunk to Serial_::setup(USBSetup&)
 .text._ZN7Serial_9availableEv
                0x000061a0       0x20 C:/Users/Ege/DOCUME~1/MATLAB/R2020b/ARDUIN~1/ARDUIN~1/FASTER~2\libcore.a(CDC.o)
                0x000061a0                Serial_::available()
 .text._ZN7Serial_5flushEv
                0x000061c0       0x10 C:/Users/Ege/DOCUME~1/MATLAB/R2020b/ARDUIN~1/ARDUIN~1/FASTER~2\libcore.a(CDC.o)
                0x000061c0                Serial_::flush()
 .text._ZN7Serial_5clearEv
                0x000061d0       0x10 C:/Users/Ege/DOCUME~1/MATLAB/R2020b/ARDUIN~1/ARDUIN~1/FASTER~2\libcore.a(CDC.o)
                0x000061d0                Serial_::clear()
 .text._ZN7Serial_5writeEPKhj
                0x000061e0       0x1e C:/Users/Ege/DOCUME~1/MATLAB/R2020b/ARDUIN~1/ARDUIN~1/FASTER~2\libcore.a(CDC.o)
                0x000061e0                Serial_::write(unsigned char const*, unsigned int)
 *fill*         0x000061fe        0x2 
 .text._ZN7Serial_4peekEv
                0x00006200       0x1c C:/Users/Ege/DOCUME~1/MATLAB/R2020b/ARDUIN~1/ARDUIN~1/FASTER~2\libcore.a(CDC.o)
                0x00006200                Serial_::peek()
 .text._ZN7Serial_4readEv
                0x0000621c       0x24 C:/Users/Ege/DOCUME~1/MATLAB/R2020b/ARDUIN~1/ARDUIN~1/FASTER~2\libcore.a(CDC.o)
                0x0000621c                Serial_::read()
 .text._ZN7Serial_C2ER14USBDeviceClass
                0x00006240       0x4c C:/Users/Ege/DOCUME~1/MATLAB/R2020b/ARDUIN~1/ARDUIN~1/FASTER~2\libcore.a(CDC.o)
                0x00006240                Serial_::Serial_(USBDeviceClass&)
                0x00006240                Serial_::Serial_(USBDeviceClass&)
 .text._ZN7Serial_15enableInterruptEv
                0x0000628c       0x30 C:/Users/Ege/DOCUME~1/MATLAB/R2020b/ARDUIN~1/ARDUIN~1/FASTER~2\libcore.a(CDC.o)
                0x0000628c                Serial_::enableInterrupt()
 .text._ZN7Serial_5beginEm
                0x000062bc        0x2 C:/Users/Ege/DOCUME~1/MATLAB/R2020b/ARDUIN~1/ARDUIN~1/FASTER~2\libcore.a(CDC.o)
                0x000062bc                Serial_::begin(unsigned long)
 *fill*         0x000062be        0x2 
 .text.startup._GLOBAL__sub_I__ZN7Serial_12getInterfaceEPh
                0x000062c0       0x14 C:/Users/Ege/DOCUME~1/MATLAB/R2020b/ARDUIN~1/ARDUIN~1/FASTER~2\libcore.a(CDC.o)
 .text._ZN13PluggableUSB_12getInterfaceEPh
                0x000062d4       0x2a C:/Users/Ege/DOCUME~1/MATLAB/R2020b/ARDUIN~1/ARDUIN~1/FASTER~2\libcore.a(PluggableUSB.o)
                0x000062d4                PluggableUSB_::getInterface(unsigned char*)
 .text._ZN13PluggableUSB_13getDescriptorER8USBSetup
                0x000062fe       0x20 C:/Users/Ege/DOCUME~1/MATLAB/R2020b/ARDUIN~1/ARDUIN~1/FASTER~2\libcore.a(PluggableUSB.o)
                0x000062fe                PluggableUSB_::getDescriptor(USBSetup&)
 .text._ZN13PluggableUSB_12getShortNameEPc
                0x0000631e       0x26 C:/Users/Ege/DOCUME~1/MATLAB/R2020b/ARDUIN~1/ARDUIN~1/FASTER~2\libcore.a(PluggableUSB.o)
                0x0000631e                PluggableUSB_::getShortName(char*)
 .text._ZN13PluggableUSB_5setupER8USBSetup
                0x00006344       0x24 C:/Users/Ege/DOCUME~1/MATLAB/R2020b/ARDUIN~1/ARDUIN~1/FASTER~2\libcore.a(PluggableUSB.o)
                0x00006344                PluggableUSB_::setup(USBSetup&)
 .text._ZN13PluggableUSB_14handleEndpointEi
                0x00006368       0x1a C:/Users/Ege/DOCUME~1/MATLAB/R2020b/ARDUIN~1/ARDUIN~1/FASTER~2\libcore.a(PluggableUSB.o)
                0x00006368                PluggableUSB_::handleEndpoint(int)
 *fill*         0x00006382        0x2 
 .text._ZN13PluggableUSB_4plugEP18PluggableUSBModule
                0x00006384       0x60 C:/Users/Ege/DOCUME~1/MATLAB/R2020b/ARDUIN~1/ARDUIN~1/FASTER~2\libcore.a(PluggableUSB.o)
                0x00006384                PluggableUSB_::plug(PluggableUSBModule*)
 .text._Z12PluggableUSBv
                0x000063e4       0x20 C:/Users/Ege/DOCUME~1/MATLAB/R2020b/ARDUIN~1/ARDUIN~1/FASTER~2\libcore.a(PluggableUSB.o)
                0x000063e4                PluggableUSB()
 .text._ZN26DoubleBufferedEPOutHandlerD2Ev
                0x00006404        0xc C:/Users/Ege/DOCUME~1/MATLAB/R2020b/ARDUIN~1/ARDUIN~1/FASTER~2\libcore.a(USBCore.o)
                0x00006404                DoubleBufferedEPOutHandler::~DoubleBufferedEPOutHandler()
                0x00006404                DoubleBufferedEPOutHandler::~DoubleBufferedEPOutHandler()
 .text._ZN26DoubleBufferedEPOutHandlerD0Ev
                0x00006410       0x14 C:/Users/Ege/DOCUME~1/MATLAB/R2020b/ARDUIN~1/ARDUIN~1/FASTER~2\libcore.a(USBCore.o)
                0x00006410                DoubleBufferedEPOutHandler::~DoubleBufferedEPOutHandler()
 .text._ZN14USBDeviceClass6initEPEmm.part.7
                0x00006424       0xbc C:/Users/Ege/DOCUME~1/MATLAB/R2020b/ARDUIN~1/ARDUIN~1/FASTER~2\libcore.a(USBCore.o)
 .text._ZN7__GuardC2Ev
                0x000064e0        0xe C:/Users/Ege/DOCUME~1/MATLAB/R2020b/ARDUIN~1/ARDUIN~1/FASTER~2\libcore.a(USBCore.o)
                0x000064e0                __Guard::__Guard()
                0x000064e0                __Guard::__Guard()
 .text._ZN7__GuardD2Ev
                0x000064ee        0xe C:/Users/Ege/DOCUME~1/MATLAB/R2020b/ARDUIN~1/ARDUIN~1/FASTER~2\libcore.a(USBCore.o)
                0x000064ee                __Guard::~__Guard()
                0x000064ee                __Guard::~__Guard()
 .text._ZNK26DoubleBufferedEPOutHandler10_availableEv
                0x000064fc       0x72 C:/Users/Ege/DOCUME~1/MATLAB/R2020b/ARDUIN~1/ARDUIN~1/FASTER~2\libcore.a(USBCore.o)
                0x000064fc                DoubleBufferedEPOutHandler::_available() const
 *fill*         0x0000656e        0x2 
 .text._ZN26DoubleBufferedEPOutHandler7releaseEv
                0x00006570       0x38 C:/Users/Ege/DOCUME~1/MATLAB/R2020b/ARDUIN~1/ARDUIN~1/FASTER~2\libcore.a(USBCore.o)
                0x00006570                DoubleBufferedEPOutHandler::release()
 .text._ZN26DoubleBufferedEPOutHandler14handleEndpointEv
                0x000065a8       0xe4 C:/Users/Ege/DOCUME~1/MATLAB/R2020b/ARDUIN~1/ARDUIN~1/FASTER~2\libcore.a(USBCore.o)
                0x000065a8                DoubleBufferedEPOutHandler::handleEndpoint()
 .text._ZN26DoubleBufferedEPOutHandler5_recvEv
                0x0000668c      0x18e C:/Users/Ege/DOCUME~1/MATLAB/R2020b/ARDUIN~1/ARDUIN~1/FASTER~2\libcore.a(USBCore.o)
                0x0000668c                DoubleBufferedEPOutHandler::_recv()
 .text._ZN26DoubleBufferedEPOutHandler9availableEv
                0x0000681a       0x18 C:/Users/Ege/DOCUME~1/MATLAB/R2020b/ARDUIN~1/ARDUIN~1/FASTER~2\libcore.a(USBCore.o)
                0x0000681a                DoubleBufferedEPOutHandler::available()
 .text._ZN26DoubleBufferedEPOutHandler4peekEv
                0x00006832       0x22 C:/Users/Ege/DOCUME~1/MATLAB/R2020b/ARDUIN~1/ARDUIN~1/FASTER~2\libcore.a(USBCore.o)
                0x00006832                DoubleBufferedEPOutHandler::peek()
 .text._ZN26DoubleBufferedEPOutHandler4recvEPvm
                0x00006854       0x66 C:/Users/Ege/DOCUME~1/MATLAB/R2020b/ARDUIN~1/ARDUIN~1/FASTER~2\libcore.a(USBCore.o)
                0x00006854                DoubleBufferedEPOutHandler::recv(void*, unsigned long)
 .text._ZN14USBDeviceClass14SendInterfacesEPm
                0x000068ba       0x20 C:/Users/Ege/DOCUME~1/MATLAB/R2020b/ARDUIN~1/ARDUIN~1/FASTER~2\libcore.a(USBCore.o)
                0x000068ba                USBDeviceClass::SendInterfaces(unsigned long*)
 *fill*         0x000068da        0x2 
 .text._ZN14USBDeviceClass4initEv
                0x000068dc      0x130 C:/Users/Ege/DOCUME~1/MATLAB/R2020b/ARDUIN~1/ARDUIN~1/FASTER~2\libcore.a(USBCore.o)
                0x000068dc                USBDeviceClass::init()
 .text._ZN14USBDeviceClass6attachEv
                0x00006a0c       0x34 C:/Users/Ege/DOCUME~1/MATLAB/R2020b/ARDUIN~1/ARDUIN~1/FASTER~2\libcore.a(USBCore.o)
                0x00006a0c                USBDeviceClass::attach()
 .text._ZN14USBDeviceClass10setAddressEm
                0x00006a40       0x48 C:/Users/Ege/DOCUME~1/MATLAB/R2020b/ARDUIN~1/ARDUIN~1/FASTER~2\libcore.a(USBCore.o)
                0x00006a40                USBDeviceClass::setAddress(unsigned long)
 .text._ZN14USBDeviceClass25handleClassInterfaceSetupER8USBSetup
                0x00006a88       0x24 C:/Users/Ege/DOCUME~1/MATLAB/R2020b/ARDUIN~1/ARDUIN~1/FASTER~2\libcore.a(USBCore.o)
                0x00006a88                USBDeviceClass::handleClassInterfaceSetup(USBSetup&)
 .text._ZN14USBDeviceClass6initEPEmm
                0x00006aac      0x124 C:/Users/Ege/DOCUME~1/MATLAB/R2020b/ARDUIN~1/ARDUIN~1/FASTER~2\libcore.a(USBCore.o)
                0x00006aac                USBDeviceClass::initEP(unsigned long, unsigned long)
 .text._ZN14USBDeviceClass13initEndpointsEv
                0x00006bd0       0x24 C:/Users/Ege/DOCUME~1/MATLAB/R2020b/ARDUIN~1/ARDUIN~1/FASTER~2\libcore.a(USBCore.o)
                0x00006bd0                USBDeviceClass::initEndpoints()
 .text._ZN14USBDeviceClass5clearEm
                0x00006bf4       0x38 C:/Users/Ege/DOCUME~1/MATLAB/R2020b/ARDUIN~1/ARDUIN~1/FASTER~2\libcore.a(USBCore.o)
                0x00006bf4                USBDeviceClass::clear(unsigned long)
 .text._ZN14USBDeviceClass9availableEm
                0x00006c2c       0x2c C:/Users/Ege/DOCUME~1/MATLAB/R2020b/ARDUIN~1/ARDUIN~1/FASTER~2\libcore.a(USBCore.o)
                0x00006c2c                USBDeviceClass::available(unsigned long)
 .text._ZN14USBDeviceClass5flushEm
                0x00006c58       0x2c C:/Users/Ege/DOCUME~1/MATLAB/R2020b/ARDUIN~1/ARDUIN~1/FASTER~2\libcore.a(USBCore.o)
                0x00006c58                USBDeviceClass::flush(unsigned long)
 .text._ZN14USBDeviceClass4recvEmPvm
                0x00006c84       0xc4 C:/Users/Ege/DOCUME~1/MATLAB/R2020b/ARDUIN~1/ARDUIN~1/FASTER~2\libcore.a(USBCore.o)
                0x00006c84                USBDeviceClass::recv(unsigned long, void*, unsigned long)
 .text._ZN14USBDeviceClass4recvEm
                0x00006d48       0x1c C:/Users/Ege/DOCUME~1/MATLAB/R2020b/ARDUIN~1/ARDUIN~1/FASTER~2\libcore.a(USBCore.o)
                0x00006d48                USBDeviceClass::recv(unsigned long)
 .text._ZN14USBDeviceClass14armRecvCtrlOUTEm
                0x00006d64       0x60 C:/Users/Ege/DOCUME~1/MATLAB/R2020b/ARDUIN~1/ARDUIN~1/FASTER~2\libcore.a(USBCore.o)
                0x00006d64                USBDeviceClass::armRecvCtrlOUT(unsigned long)
 .text._ZN14USBDeviceClass11recvControlEPvm
                0x00006dc4       0x28 C:/Users/Ege/DOCUME~1/MATLAB/R2020b/ARDUIN~1/ARDUIN~1/FASTER~2\libcore.a(USBCore.o)
                0x00006dc4                USBDeviceClass::recvControl(void*, unsigned long)
 .text._ZN14USBDeviceClass4sendEmPKvm
                0x00006dec      0x11c C:/Users/Ege/DOCUME~1/MATLAB/R2020b/ARDUIN~1/ARDUIN~1/FASTER~2\libcore.a(USBCore.o)
                0x00006dec                USBDeviceClass::send(unsigned long, void const*, unsigned long)
 .text._ZN14USBDeviceClass7armSendEmPKvm
                0x00006f08       0x48 C:/Users/Ege/DOCUME~1/MATLAB/R2020b/ARDUIN~1/ARDUIN~1/FASTER~2\libcore.a(USBCore.o)
                0x00006f08                USBDeviceClass::armSend(unsigned long, void const*, unsigned long)
 .text._ZN14USBDeviceClass11sendControlEPKvm
                0x00006f50       0x58 C:/Users/Ege/DOCUME~1/MATLAB/R2020b/ARDUIN~1/ARDUIN~1/FASTER~2\libcore.a(USBCore.o)
                0x00006f50                USBDeviceClass::sendControl(void const*, unsigned long)
 .text._ZN14USBDeviceClass20sendStringDescriptorEPKhm
                0x00006fa8       0x68 C:/Users/Ege/DOCUME~1/MATLAB/R2020b/ARDUIN~1/ARDUIN~1/FASTER~2\libcore.a(USBCore.o)
                0x00006fa8                USBDeviceClass::sendStringDescriptor(unsigned char const*, unsigned long)
 .text._ZN14USBDeviceClass12packMessagesEb.part.6
                0x00007010       0x20 C:/Users/Ege/DOCUME~1/MATLAB/R2020b/ARDUIN~1/ARDUIN~1/FASTER~2\libcore.a(USBCore.o)
 .text._ZN14USBDeviceClass17sendConfigurationEm
                0x00007030       0x90 C:/Users/Ege/DOCUME~1/MATLAB/R2020b/ARDUIN~1/ARDUIN~1/FASTER~2\libcore.a(USBCore.o)
                0x00007030                USBDeviceClass::sendConfiguration(unsigned long)
 .text._ZN14USBDeviceClass14sendDescriptorER8USBSetup
                0x000070c0       0xec C:/Users/Ege/DOCUME~1/MATLAB/R2020b/ARDUIN~1/ARDUIN~1/FASTER~2\libcore.a(USBCore.o)
                0x000070c0                USBDeviceClass::sendDescriptor(USBSetup&)
 .text._ZN14USBDeviceClass7sendZlpEm
                0x000071ac       0x18 C:/Users/Ege/DOCUME~1/MATLAB/R2020b/ARDUIN~1/ARDUIN~1/FASTER~2\libcore.a(USBCore.o)
                0x000071ac                USBDeviceClass::sendZlp(unsigned long)
 .text._ZN14USBDeviceClass19handleStandardSetupER8USBSetup
                0x000071c4       0xfc C:/Users/Ege/DOCUME~1/MATLAB/R2020b/ARDUIN~1/ARDUIN~1/FASTER~2\libcore.a(USBCore.o)
                0x000071c4                USBDeviceClass::handleStandardSetup(USBSetup&)
 .text._ZN14USBDeviceClass10ISRHandlerEv
                0x000072c0      0x10c C:/Users/Ege/DOCUME~1/MATLAB/R2020b/ARDUIN~1/ARDUIN~1/FASTER~2\libcore.a(USBCore.o)
                0x000072c0                USBDeviceClass::ISRHandler()
 .text.UDD_Handler
                0x000073cc       0x10 C:/Users/Ege/DOCUME~1/MATLAB/R2020b/ARDUIN~1/ARDUIN~1/FASTER~2\libcore.a(USBCore.o)
                0x000073cc                UDD_Handler
 .text.startup._GLOBAL__sub_I_usbd
                0x000073dc       0x10 C:/Users/Ege/DOCUME~1/MATLAB/R2020b/ARDUIN~1/ARDUIN~1/FASTER~2\libcore.a(USBCore.o)
 .text.SERCOM5_Handler
                0x000073ec       0x10 C:/Users/Ege/DOCUME~1/MATLAB/R2020b/ARDUIN~1/ARDUIN~1/FASTER~2\libcore.a(variant.o)
                0x000073ec                SERCOM5_Handler
 .text.SERCOM3_Handler
                0x000073fc       0x10 C:/Users/Ege/DOCUME~1/MATLAB/R2020b/ARDUIN~1/ARDUIN~1/FASTER~2\libcore.a(variant.o)
                0x000073fc                SERCOM3_Handler
 .text.SERCOM2_Handler
                0x0000740c       0x10 C:/Users/Ege/DOCUME~1/MATLAB/R2020b/ARDUIN~1/ARDUIN~1/FASTER~2\libcore.a(variant.o)
                0x0000740c                SERCOM2_Handler
 .text.startup._GLOBAL__sub_I_g_APinDescription
                0x0000741c       0xbc C:/Users/Ege/DOCUME~1/MATLAB/R2020b/ARDUIN~1/ARDUIN~1/FASTER~2\libcore.a(variant.o)
 .text._Znwj    0x000074d8        0x8 C:/Users/Ege/DOCUME~1/MATLAB/R2020b/ARDUIN~1/ARDUIN~1/FASTER~2\libcore.a(new.o)
                0x000074d8                operator new(unsigned int)
 .text._ZdlPv   0x000074e0        0x8 C:/Users/Ege/DOCUME~1/MATLAB/R2020b/ARDUIN~1/ARDUIN~1/FASTER~2\libcore.a(new.o)
                0x000074e0                operator delete(void*)
 .text._ZN5Print5writeEPKhj
                0x000074e8       0x28 C:/Users/Ege/DOCUME~1/MATLAB/R2020b/ARDUIN~1/ARDUIN~1/FASTER~2\libcore.a(Print.o)
                0x000074e8                Print::write(unsigned char const*, unsigned int)
 .text._ZN6SERCOMC2EP6Sercom
                0x00007510        0x4 C:/Users/Ege/DOCUME~1/MATLAB/R2020b/ARDUIN~1/ARDUIN~1/FASTER~2\libcore.a(SERCOM.o)
                0x00007510                SERCOM::SERCOM(Sercom*)
                0x00007510                SERCOM::SERCOM(Sercom*)
 .text._ZN6SERCOM9initFrameE18SercomUartCharSize15SercomDataOrder16SercomParityMode19SercomNumberStopBit
                0x00007514       0x38 C:/Users/Ege/DOCUME~1/MATLAB/R2020b/ARDUIN~1/ARDUIN~1/FASTER~2\libcore.a(SERCOM.o)
                0x00007514                SERCOM::initFrame(SercomUartCharSize, SercomDataOrder, SercomParityMode, SercomNumberStopBit)
 .text._ZN6SERCOM8initPadsE15SercomUartTXPad11SercomRXPad
                0x0000754c       0x26 C:/Users/Ege/DOCUME~1/MATLAB/R2020b/ARDUIN~1/ARDUIN~1/FASTER~2\libcore.a(SERCOM.o)
                0x0000754c                SERCOM::initPads(SercomUartTXPad, SercomRXPad)
 .text._ZN6SERCOM9resetUARTEv
                0x00007572       0x1c C:/Users/Ege/DOCUME~1/MATLAB/R2020b/ARDUIN~1/ARDUIN~1/FASTER~2\libcore.a(SERCOM.o)
                0x00007572                SERCOM::resetUART()
 .text._ZN6SERCOM10enableUARTEv
                0x0000758e       0x14 C:/Users/Ege/DOCUME~1/MATLAB/R2020b/ARDUIN~1/ARDUIN~1/FASTER~2\libcore.a(SERCOM.o)
                0x0000758e                SERCOM::enableUART()
 .text._ZN6SERCOM9flushUARTEv
                0x000075a2       0x10 C:/Users/Ege/DOCUME~1/MATLAB/R2020b/ARDUIN~1/ARDUIN~1/FASTER~2\libcore.a(SERCOM.o)
                0x000075a2                SERCOM::flushUART()
 .text._ZN6SERCOM15clearStatusUARTEv
                0x000075b2        0x8 C:/Users/Ege/DOCUME~1/MATLAB/R2020b/ARDUIN~1/ARDUIN~1/FASTER~2\libcore.a(SERCOM.o)
                0x000075b2                SERCOM::clearStatusUART()
 .text._ZN6SERCOM17availableDataUARTEv
                0x000075ba        0xa C:/Users/Ege/DOCUME~1/MATLAB/R2020b/ARDUIN~1/ARDUIN~1/FASTER~2\libcore.a(SERCOM.o)
                0x000075ba                SERCOM::availableDataUART()
 .text._ZN6SERCOM11isUARTErrorEv
                0x000075c4        0x8 C:/Users/Ege/DOCUME~1/MATLAB/R2020b/ARDUIN~1/ARDUIN~1/FASTER~2\libcore.a(SERCOM.o)
                0x000075c4                SERCOM::isUARTError()
 .text._ZN6SERCOM20acknowledgeUARTErrorEv
                0x000075cc        0xe C:/Users/Ege/DOCUME~1/MATLAB/R2020b/ARDUIN~1/ARDUIN~1/FASTER~2\libcore.a(SERCOM.o)
                0x000075cc                SERCOM::acknowledgeUARTError()
 .text._ZN6SERCOM16isFrameErrorUARTEv
                0x000075da        0xa C:/Users/Ege/DOCUME~1/MATLAB/R2020b/ARDUIN~1/ARDUIN~1/FASTER~2\libcore.a(SERCOM.o)
                0x000075da                SERCOM::isFrameErrorUART()
 .text._ZN6SERCOM19clearFrameErrorUARTEv
                0x000075e4        0xc C:/Users/Ege/DOCUME~1/MATLAB/R2020b/ARDUIN~1/ARDUIN~1/FASTER~2\libcore.a(SERCOM.o)
                0x000075e4                SERCOM::clearFrameErrorUART()
 .text._ZN6SERCOM23isDataRegisterEmptyUARTEv
                0x000075f0        0xa C:/Users/Ege/DOCUME~1/MATLAB/R2020b/ARDUIN~1/ARDUIN~1/FASTER~2\libcore.a(SERCOM.o)
                0x000075f0                SERCOM::isDataRegisterEmptyUART()
 .text._ZN6SERCOM12readDataUARTEv
                0x000075fa        0x8 C:/Users/Ege/DOCUME~1/MATLAB/R2020b/ARDUIN~1/ARDUIN~1/FASTER~2\libcore.a(SERCOM.o)
                0x000075fa                SERCOM::readDataUART()
 .text._ZN6SERCOM13writeDataUARTEh
                0x00007602        0xe C:/Users/Ege/DOCUME~1/MATLAB/R2020b/ARDUIN~1/ARDUIN~1/FASTER~2\libcore.a(SERCOM.o)
                0x00007602                SERCOM::writeDataUART(unsigned char)
 .text._ZN6SERCOM36enableDataRegisterEmptyInterruptUARTEv
                0x00007610        0x8 C:/Users/Ege/DOCUME~1/MATLAB/R2020b/ARDUIN~1/ARDUIN~1/FASTER~2\libcore.a(SERCOM.o)
                0x00007610                SERCOM::enableDataRegisterEmptyInterruptUART()
 .text._ZN6SERCOM37disableDataRegisterEmptyInterruptUARTEv
                0x00007618        0x8 C:/Users/Ege/DOCUME~1/MATLAB/R2020b/ARDUIN~1/ARDUIN~1/FASTER~2\libcore.a(SERCOM.o)
                0x00007618                SERCOM::disableDataRegisterEmptyInterruptUART()
 .text._ZN6SERCOM13initClockNVICEv
                0x00007620       0xac C:/Users/Ege/DOCUME~1/MATLAB/R2020b/ARDUIN~1/ARDUIN~1/FASTER~2\libcore.a(SERCOM.o)
                0x00007620                SERCOM::initClockNVIC()
 .text._ZN6SERCOM8initUARTE14SercomUartMode20SercomUartSampleRatem
                0x000076cc       0x6c C:/Users/Ege/DOCUME~1/MATLAB/R2020b/ARDUIN~1/ARDUIN~1/FASTER~2\libcore.a(SERCOM.o)
                0x000076cc                SERCOM::initUART(SercomUartMode, SercomUartSampleRate, unsigned long)
 .text          0x00007738       0x14 c:/programdata/matlab/supportpackages/r2020b/3p.instrset/arduinoide.instrset/tools/arm-none-eabi-gcc/4.8.3-2014q1/bin/../lib/gcc/arm-none-eabi/4.8.3/armv6-m\libgcc.a(_thumb1_case_uqi.o)
                0x00007738                __gnu_thumb1_case_uqi
 .text          0x0000774c       0x9c c:/programdata/matlab/supportpackages/r2020b/3p.instrset/arduinoide.instrset/tools/arm-none-eabi-gcc/4.8.3-2014q1/bin/../lib/gcc/arm-none-eabi/4.8.3/armv6-m\libgcc.a(_udivsi3.o)
                0x0000774c                __aeabi_uidiv
                0x0000774c                __udivsi3
                0x000077d4                __aeabi_uidivmod
 .text          0x000077e8        0x4 c:/programdata/matlab/supportpackages/r2020b/3p.instrset/arduinoide.instrset/tools/arm-none-eabi-gcc/4.8.3-2014q1/bin/../lib/gcc/arm-none-eabi/4.8.3/armv6-m\libgcc.a(_dvmd_tls.o)
                0x000077e8                __aeabi_idiv0
                0x000077e8                __aeabi_ldiv0
 .text          0x000077ec       0x7c c:/programdata/matlab/supportpackages/r2020b/3p.instrset/arduinoide.instrset/tools/arm-none-eabi-gcc/4.8.3-2014q1/bin/../lib/gcc/arm-none-eabi/4.8.3/armv6-m\libgcc.a(_arm_cmpdf2.o)
                0x000077ec                __aeabi_cdrcmple
                0x000077fc                __aeabi_cdcmple
                0x000077fc                __aeabi_cdcmpeq
                0x0000780c                __aeabi_dcmpeq
                0x00007818                __aeabi_dcmplt
                0x0000782c                __aeabi_dcmple
                0x00007840                __aeabi_dcmpgt
                0x00007854                __aeabi_dcmpge
 .text          0x00007868       0x40 c:/programdata/matlab/supportpackages/r2020b/3p.instrset/arduinoide.instrset/tools/arm-none-eabi-gcc/4.8.3-2014q1/bin/../lib/gcc/arm-none-eabi/4.8.3/armv6-m\libgcc.a(_fixunsdfsi.o)
                0x00007868                __aeabi_d2uiz
                0x00007868                __fixunsdfsi
 .text          0x000078a8      0x638 c:/programdata/matlab/supportpackages/r2020b/3p.instrset/arduinoide.instrset/tools/arm-none-eabi-gcc/4.8.3-2014q1/bin/../lib/gcc/arm-none-eabi/4.8.3/armv6-m\libgcc.a(adddf3.o)
                0x000078a8                __aeabi_dadd
 .text          0x00007ee0      0x648 c:/programdata/matlab/supportpackages/r2020b/3p.instrset/arduinoide.instrset/tools/arm-none-eabi-gcc/4.8.3-2014q1/bin/../lib/gcc/arm-none-eabi/4.8.3/armv6-m\libgcc.a(divdf3.o)
                0x00007ee0                __aeabi_ddiv
 .text          0x00008528       0x94 c:/programdata/matlab/supportpackages/r2020b/3p.instrset/arduinoide.instrset/tools/arm-none-eabi-gcc/4.8.3-2014q1/bin/../lib/gcc/arm-none-eabi/4.8.3/armv6-m\libgcc.a(eqdf2.o)
                0x00008528                __nedf2
                0x00008528                __eqdf2
 .text          0x000085bc       0xfc c:/programdata/matlab/supportpackages/r2020b/3p.instrset/arduinoide.instrset/tools/arm-none-eabi-gcc/4.8.3-2014q1/bin/../lib/gcc/arm-none-eabi/4.8.3/armv6-m\libgcc.a(gedf2.o)
                0x000085bc                __gedf2
                0x000085bc                __gtdf2
 .text          0x000086b8       0xfc c:/programdata/matlab/supportpackages/r2020b/3p.instrset/arduinoide.instrset/tools/arm-none-eabi-gcc/4.8.3-2014q1/bin/../lib/gcc/arm-none-eabi/4.8.3/armv6-m\libgcc.a(ledf2.o)
                0x000086b8                __ledf2
                0x000086b8                __ltdf2
 .text          0x000087b4      0x520 c:/programdata/matlab/supportpackages/r2020b/3p.instrset/arduinoide.instrset/tools/arm-none-eabi-gcc/4.8.3-2014q1/bin/../lib/gcc/arm-none-eabi/4.8.3/armv6-m\libgcc.a(muldf3.o)
                0x000087b4                __aeabi_dmul
 .text          0x00008cd4      0x654 c:/programdata/matlab/supportpackages/r2020b/3p.instrset/arduinoide.instrset/tools/arm-none-eabi-gcc/4.8.3-2014q1/bin/../lib/gcc/arm-none-eabi/4.8.3/armv6-m\libgcc.a(subdf3.o)
                0x00008cd4                __aeabi_dsub
 .text          0x00009328       0x68 c:/programdata/matlab/supportpackages/r2020b/3p.instrset/arduinoide.instrset/tools/arm-none-eabi-gcc/4.8.3-2014q1/bin/../lib/gcc/arm-none-eabi/4.8.3/armv6-m\libgcc.a(fixdfsi.o)
                0x00009328                __aeabi_d2iz
 .text          0x00009390       0x68 c:/programdata/matlab/supportpackages/r2020b/3p.instrset/arduinoide.instrset/tools/arm-none-eabi-gcc/4.8.3-2014q1/bin/../lib/gcc/arm-none-eabi/4.8.3/armv6-m\libgcc.a(floatunsidf.o)
                0x00009390                __aeabi_ui2d
 .text          0x000093f8       0x3c c:/programdata/matlab/supportpackages/r2020b/3p.instrset/arduinoide.instrset/tools/arm-none-eabi-gcc/4.8.3-2014q1/bin/../lib/gcc/arm-none-eabi/4.8.3/armv6-m\libgcc.a(_clzsi2.o)
                0x000093f8                __clzsi2
 .text.__errno  0x00009434        0xc c:/programdata/matlab/supportpackages/r2020b/3p.instrset/arduinoide.instrset/tools/arm-none-eabi-gcc/4.8.3-2014q1/bin/../lib/gcc/arm-none-eabi/4.8.3/../../../../arm-none-eabi/lib/armv6-m\libg_s.a(lib_a-errno.o)
                0x00009434                __errno
 .text.exit     0x00009440       0x2c c:/programdata/matlab/supportpackages/r2020b/3p.instrset/arduinoide.instrset/tools/arm-none-eabi-gcc/4.8.3-2014q1/bin/../lib/gcc/arm-none-eabi/4.8.3/../../../../arm-none-eabi/lib/armv6-m\libg_s.a(lib_a-exit.o)
                0x00009440                exit
 .text.__libc_init_array
                0x0000946c       0x4c c:/programdata/matlab/supportpackages/r2020b/3p.instrset/arduinoide.instrset/tools/arm-none-eabi-gcc/4.8.3-2014q1/bin/../lib/gcc/arm-none-eabi/4.8.3/../../../../arm-none-eabi/lib/armv6-m\libg_s.a(lib_a-init.o)
                0x0000946c                __libc_init_array
 .text.malloc   0x000094b8       0x14 c:/programdata/matlab/supportpackages/r2020b/3p.instrset/arduinoide.instrset/tools/arm-none-eabi-gcc/4.8.3-2014q1/bin/../lib/gcc/arm-none-eabi/4.8.3/../../../../arm-none-eabi/lib/armv6-m\libg_s.a(lib_a-malloc.o)
                0x000094b8                malloc
 .text.free     0x000094cc       0x14 c:/programdata/matlab/supportpackages/r2020b/3p.instrset/arduinoide.instrset/tools/arm-none-eabi-gcc/4.8.3-2014q1/bin/../lib/gcc/arm-none-eabi/4.8.3/../../../../arm-none-eabi/lib/armv6-m\libg_s.a(lib_a-malloc.o)
                0x000094cc                free
 .text.memcpy   0x000094e0       0x12 c:/programdata/matlab/supportpackages/r2020b/3p.instrset/arduinoide.instrset/tools/arm-none-eabi-gcc/4.8.3-2014q1/bin/../lib/gcc/arm-none-eabi/4.8.3/../../../../arm-none-eabi/lib/armv6-m\libg_s.a(lib_a-memcpy-stub.o)
                0x000094e0                memcpy
 .text.memset   0x000094f2       0x10 c:/programdata/matlab/supportpackages/r2020b/3p.instrset/arduinoide.instrset/tools/arm-none-eabi-gcc/4.8.3-2014q1/bin/../lib/gcc/arm-none-eabi/4.8.3/../../../../arm-none-eabi/lib/armv6-m\libg_s.a(lib_a-memset.o)
                0x000094f2                memset
 *fill*         0x00009502        0x2 
 .text._free_r  0x00009504       0x90 c:/programdata/matlab/supportpackages/r2020b/3p.instrset/arduinoide.instrset/tools/arm-none-eabi-gcc/4.8.3-2014q1/bin/../lib/gcc/arm-none-eabi/4.8.3/../../../../arm-none-eabi/lib/armv6-m\libg_s.a(lib_a-nano-freer.o)
                0x00009504                _free_r
 .text._malloc_r
                0x00009594       0xa8 c:/programdata/matlab/supportpackages/r2020b/3p.instrset/arduinoide.instrset/tools/arm-none-eabi-gcc/4.8.3-2014q1/bin/../lib/gcc/arm-none-eabi/4.8.3/../../../../arm-none-eabi/lib/armv6-m\libg_s.a(lib_a-nano-mallocr.o)
                0x00009594                _malloc_r
 .text._sbrk_r  0x0000963c       0x24 c:/programdata/matlab/supportpackages/r2020b/3p.instrset/arduinoide.instrset/tools/arm-none-eabi-gcc/4.8.3-2014q1/bin/../lib/gcc/arm-none-eabi/4.8.3/../../../../arm-none-eabi/lib/armv6-m\libg_s.a(lib_a-sbrkr.o)
                0x0000963c                _sbrk_r
 .text.strlen   0x00009660        0xe c:/programdata/matlab/supportpackages/r2020b/3p.instrset/arduinoide.instrset/tools/arm-none-eabi-gcc/4.8.3-2014q1/bin/../lib/gcc/arm-none-eabi/4.8.3/../../../../arm-none-eabi/lib/armv6-m\libg_s.a(lib_a-strlen.o)
                0x00009660                strlen
 *fill*         0x0000966e        0x2 
 .text._sbrk    0x00009670       0x34 c:/programdata/matlab/supportpackages/r2020b/3p.instrset/arduinoide.instrset/tools/arm-none-eabi-gcc/4.8.3-2014q1/bin/../lib/gcc/arm-none-eabi/4.8.3/../../../../arm-none-eabi/lib/armv6-m\libnosys.a(sbrk.o)
                0x00009670                _sbrk
 .text._exit    0x000096a4        0x4 c:/programdata/matlab/supportpackages/r2020b/3p.instrset/arduinoide.instrset/tools/arm-none-eabi-gcc/4.8.3-2014q1/bin/../lib/gcc/arm-none-eabi/4.8.3/../../../../arm-none-eabi/lib/armv6-m\libnosys.a(_exit.o)
                0x000096a4                _exit
 *(.init)
 .init          0x000096a8        0x4 c:/programdata/matlab/supportpackages/r2020b/3p.instrset/arduinoide.instrset/tools/arm-none-eabi-gcc/4.8.3-2014q1/bin/../lib/gcc/arm-none-eabi/4.8.3/armv6-m/crti.o
                0x000096a8                _init
 .init          0x000096ac        0x8 c:/programdata/matlab/supportpackages/r2020b/3p.instrset/arduinoide.instrset/tools/arm-none-eabi-gcc/4.8.3-2014q1/bin/../lib/gcc/arm-none-eabi/4.8.3/armv6-m/crtn.o
 *(.fini)
 .fini          0x000096b4        0x4 c:/programdata/matlab/supportpackages/r2020b/3p.instrset/arduinoide.instrset/tools/arm-none-eabi-gcc/4.8.3-2014q1/bin/../lib/gcc/arm-none-eabi/4.8.3/armv6-m/crti.o
                0x000096b4                _fini
 .fini          0x000096b8        0x8 c:/programdata/matlab/supportpackages/r2020b/3p.instrset/arduinoide.instrset/tools/arm-none-eabi-gcc/4.8.3-2014q1/bin/../lib/gcc/arm-none-eabi/4.8.3/armv6-m/crtn.o
 *crtbegin.o(.ctors)
 *crtbegin?.o(.ctors)
 *(EXCLUDE_FILE(*crtend.o *crtend?.o) .ctors)
 *(SORT(.ctors.*))
 *(.ctors)
 *crtbegin.o(.dtors)
 *crtbegin?.o(.dtors)
 *(EXCLUDE_FILE(*crtend.o *crtend?.o) .dtors)
 *(SORT(.dtors.*))
 *(.dtors)
 *(.rodata*)
 .rodata        0x000096c0       0x10 MW_PWMDriver.o
 .rodata.rtAlwaysEnabled.11909
                0x000096d0        0x1 physicalmotortest.o
 .rodata.str1.1
                0x000096d1       0x14 physicalmotortest.o
 *fill*         0x000096e5        0x3 
 .rodata.physicalmotortest_M
                0x000096e8        0x4 physicalmotortest.o
                0x000096e8                physicalmotortest_M
 .rodata.xcpMemMainBlocksNumber
                0x000096ec        0xc xcp_mem_default.o
 .rodata.xcpMemMainBlockSizes
                0x000096f8        0xc xcp_mem_default.o
 .rodata.str1.4
                0x00009704        0x8 c:/programdata/matlab/supportpackages/r2020b/3p.instrset/arduinoide.instrset/tools/arm-none-eabi-gcc/4.8.3-2014q1/bin/../lib/gcc/arm-none-eabi/4.8.3/../../../../arm-none-eabi/lib/armv6-m\libm.a(lib_a-w_fmod.o)
 *fill*         0x0000970c        0x4 
 .rodata.Zero   0x00009710       0x10 c:/programdata/matlab/supportpackages/r2020b/3p.instrset/arduinoide.instrset/tools/arm-none-eabi-gcc/4.8.3-2014q1/bin/../lib/gcc/arm-none-eabi/4.8.3/../../../../arm-none-eabi/lib/armv6-m\libm.a(lib_a-e_fmod.o)
 .rodata        0x00009720       0x10 C:/Users/Ege/DOCUME~1/MATLAB/R2020b/ARDUIN~1/ARDUIN~1/FASTER~2\libcore.a(wiring_analog.o)
 .rodata._ZTV4Uart
                0x00009730       0x38 C:/Users/Ege/DOCUME~1/MATLAB/R2020b/ARDUIN~1/ARDUIN~1/FASTER~2\libcore.a(Uart.o)
                0x00009730                vtable for Uart
 .rodata._ZTV7Serial_
                0x00009768       0x58 C:/Users/Ege/DOCUME~1/MATLAB/R2020b/ARDUIN~1/ARDUIN~1/FASTER~2\libcore.a(CDC.o)
                0x00009768                vtable for Serial_
 .rodata._ZTV26DoubleBufferedEPOutHandler
                0x000097c0       0x28 C:/Users/Ege/DOCUME~1/MATLAB/R2020b/ARDUIN~1/ARDUIN~1/FASTER~2\libcore.a(USBCore.o)
                0x000097c0                vtable for DoubleBufferedEPOutHandler
 .rodata._ZL15STRING_LANGUAGE
                0x000097e8        0x4 C:/Users/Ege/DOCUME~1/MATLAB/R2020b/ARDUIN~1/ARDUIN~1/FASTER~2\libcore.a(USBCore.o)
 .rodata._ZL21USB_DeviceDescriptorB
                0x000097ec       0x12 C:/Users/Ege/DOCUME~1/MATLAB/R2020b/ARDUIN~1/ARDUIN~1/FASTER~2\libcore.a(USBCore.o)
 .rodata._ZL19STRING_MANUFACTURER
                0x000097fe        0xc C:/Users/Ege/DOCUME~1/MATLAB/R2020b/ARDUIN~1/ARDUIN~1/FASTER~2\libcore.a(USBCore.o)
 .rodata._ZL14STRING_PRODUCT
                0x0000980a       0x14 C:/Users/Ege/DOCUME~1/MATLAB/R2020b/ARDUIN~1/ARDUIN~1/FASTER~2\libcore.a(USBCore.o)
 *fill*         0x0000981e        0x2 
 .rodata.g_APinDescription
                0x00009820      0x318 C:/Users/Ege/DOCUME~1/MATLAB/R2020b/ARDUIN~1/ARDUIN~1/FASTER~2\libcore.a(variant.o)
                0x00009820                g_APinDescription
 .rodata        0x00009b38       0x40 c:/programdata/matlab/supportpackages/r2020b/3p.instrset/arduinoide.instrset/tools/arm-none-eabi-gcc/4.8.3-2014q1/bin/../lib/gcc/arm-none-eabi/4.8.3/armv6-m\libgcc.a(divdf3.o)
 .rodata        0x00009b78       0x40 c:/programdata/matlab/supportpackages/r2020b/3p.instrset/arduinoide.instrset/tools/arm-none-eabi-gcc/4.8.3-2014q1/bin/../lib/gcc/arm-none-eabi/4.8.3/armv6-m\libgcc.a(muldf3.o)
 .rodata.str1.1
                0x00009bb8        0x2 c:/programdata/matlab/supportpackages/r2020b/3p.instrset/arduinoide.instrset/tools/arm-none-eabi-gcc/4.8.3-2014q1/bin/../lib/gcc/arm-none-eabi/4.8.3/../../../../arm-none-eabi/lib/armv6-m\libg_s.a(lib_a-impure.o)
 *fill*         0x00009bba        0x2 
 .rodata._global_impure_ptr
                0x00009bbc        0x4 c:/programdata/matlab/supportpackages/r2020b/3p.instrset/arduinoide.instrset/tools/arm-none-eabi-gcc/4.8.3-2014q1/bin/../lib/gcc/arm-none-eabi/4.8.3/../../../../arm-none-eabi/lib/armv6-m\libg_s.a(lib_a-impure.o)
                0x00009bbc                _global_impure_ptr
 *(.eh_frame*)
 .eh_frame      0x00009bc0        0x0 c:/programdata/matlab/supportpackages/r2020b/3p.instrset/arduinoide.instrset/tools/arm-none-eabi-gcc/4.8.3-2014q1/bin/../lib/gcc/arm-none-eabi/4.8.3/armv6-m/crtbegin.o
 .eh_frame      0x00009bc0        0x4 c:/programdata/matlab/supportpackages/r2020b/3p.instrset/arduinoide.instrset/tools/arm-none-eabi-gcc/4.8.3-2014q1/bin/../lib/gcc/arm-none-eabi/4.8.3/armv6-m/crtend.o

.glue_7         0x00009bc4        0x0
 .glue_7        0x00000000        0x0 linker stubs

.glue_7t        0x00009bc4        0x0
 .glue_7t       0x00000000        0x0 linker stubs

.vfp11_veneer   0x00009bc4        0x0
 .vfp11_veneer  0x00000000        0x0 linker stubs

.v4_bx          0x00009bc4        0x0
 .v4_bx         0x00000000        0x0 linker stubs

.iplt           0x00009bc4        0x0
 .iplt          0x00000000        0x0 c:/programdata/matlab/supportpackages/r2020b/3p.instrset/arduinoide.instrset/tools/arm-none-eabi-gcc/4.8.3-2014q1/bin/../lib/gcc/arm-none-eabi/4.8.3/armv6-m/crtbegin.o

.rel.dyn        0x00009bc4        0x0
 .rel.iplt      0x00000000        0x0 c:/programdata/matlab/supportpackages/r2020b/3p.instrset/arduinoide.instrset/tools/arm-none-eabi-gcc/4.8.3-2014q1/bin/../lib/gcc/arm-none-eabi/4.8.3/armv6-m/crtbegin.o

.ARM.extab
 *(.ARM.extab* .gnu.linkonce.armextab.*)
                0x00009bc4                __exidx_start = .

.ARM.exidx
 *(.ARM.exidx* .gnu.linkonce.armexidx.*)
                0x00009bc4                __exidx_end = .
                0x00009bc4                __etext = .

.data           0x20000000      0x1d0 load address 0x00009bc4
                0x20000000                __data_start__ = .
 *(vtable)
 *(.data*)
 .data.physicalmotortest_P
                0x20000000        0x8 physicalmotortest_data.o
                0x20000000                physicalmotortest_P
 .data.xcpExtmodeFinalSimulationTime
                0x20000008        0x8 xcp_ext_common.o
                0x20000008                xcpExtmodeFinalSimulationTime
 .data.xcpModelStatus
                0x20000010        0x1 xcp_ext_common.o
                0x20000010                xcpModelStatus
 *fill*         0x20000011        0x3 
 .data.xcpClassicTriggerDuration
                0x20000014        0x4 xcp_ext_classic_trigger.o
                0x20000014                xcpClassicTriggerDuration
 .data.xcpClassicTriggerArmRequest
                0x20000018        0x1 xcp_ext_classic_trigger.o
                0x20000018                xcpClassicTriggerArmRequest
 *fill*         0x20000019        0x3 
 .data.standardSupportedRxPacket
                0x2000001c       0x54 xcp_standard.o
 .data.daqSupportedRxPacket
                0x20000070       0x84 xcp_daq.o
 .data.xcpCurrentDaq
                0x200000f4        0x4 xcp_daq.o
 .data.calibrationSupportedRxPacket
                0x200000f8       0x18 xcp_calibration.o
 .data.xcpCtoReservedMemPoolId
                0x20000110        0x4 xcp_transport.o
 .data.drvID    0x20000114        0x4 xcp_drv_rtiostream.o
 .data.xcpCtoReservedMemPoolId
                0x20000118        0x4 xcp_frame_serial.o
 .data.__fdlib_version
                0x2000011c        0x1 c:/programdata/matlab/supportpackages/r2020b/3p.instrset/arduinoide.instrset/tools/arm-none-eabi-gcc/4.8.3-2014q1/bin/../lib/gcc/arm-none-eabi/4.8.3/../../../../arm-none-eabi/lib/armv6-m\libm.a(lib_a-s_lib_ver.o)
                0x2000011c                __fdlib_version
 *fill*         0x2000011d        0x3 
 .data.SystemCoreClock
                0x20000120        0x4 C:/Users/Ege/DOCUME~1/MATLAB/R2020b/ARDUIN~1/ARDUIN~1/FASTER~2\libcore.a(wiring.o)
                0x20000120                SystemCoreClock
 .data._writeResolution
                0x20000124        0x4 C:/Users/Ege/DOCUME~1/MATLAB/R2020b/ARDUIN~1/ARDUIN~1/FASTER~2\libcore.a(wiring_analog.o)
 .data._ZL5ticks
                0x20000128        0x4 C:/Users/Ege/DOCUME~1/MATLAB/R2020b/ARDUIN~1/ARDUIN~1/FASTER~2\libcore.a(Reset.o)
 .data._serialPeek
                0x2000012c        0x4 C:/Users/Ege/DOCUME~1/MATLAB/R2020b/ARDUIN~1/ARDUIN~1/FASTER~2\libcore.a(CDC.o)
                0x2000012c                _serialPeek
 .data._ZL10breakValue
                0x20000130        0x4 C:/Users/Ege/DOCUME~1/MATLAB/R2020b/ARDUIN~1/ARDUIN~1/FASTER~2\libcore.a(CDC.o)
 .data._ZL12_usbLineInfo
                0x20000134        0x8 C:/Users/Ege/DOCUME~1/MATLAB/R2020b/ARDUIN~1/ARDUIN~1/FASTER~2\libcore.a(CDC.o)
 .data.g_apTCInstances
                0x2000013c       0x18 C:/Users/Ege/DOCUME~1/MATLAB/R2020b/ARDUIN~1/ARDUIN~1/FASTER~2\libcore.a(variant.o)
                0x2000013c                g_apTCInstances
 .data.impure_data
                0x20000154       0x60 c:/programdata/matlab/supportpackages/r2020b/3p.instrset/arduinoide.instrset/tools/arm-none-eabi-gcc/4.8.3-2014q1/bin/../lib/gcc/arm-none-eabi/4.8.3/../../../../arm-none-eabi/lib/armv6-m\libg_s.a(lib_a-impure.o)
 .data._impure_ptr
                0x200001b4        0x4 c:/programdata/matlab/supportpackages/r2020b/3p.instrset/arduinoide.instrset/tools/arm-none-eabi-gcc/4.8.3-2014q1/bin/../lib/gcc/arm-none-eabi/4.8.3/../../../../arm-none-eabi/lib/armv6-m\libg_s.a(lib_a-impure.o)
                0x200001b4                _impure_ptr
                0x200001b8                . = ALIGN (0x4)
                0x200001b8                PROVIDE (__preinit_array_start, .)
 *(.preinit_array)
                0x200001b8                PROVIDE (__preinit_array_end, .)
                0x200001b8                . = ALIGN (0x4)
                0x200001b8                PROVIDE (__init_array_start, .)
 *(SORT(.init_array.*))
 *(.init_array)
 .init_array    0x200001b8        0x4 c:/programdata/matlab/supportpackages/r2020b/3p.instrset/arduinoide.instrset/tools/arm-none-eabi-gcc/4.8.3-2014q1/bin/../lib/gcc/arm-none-eabi/4.8.3/armv6-m/crtbegin.o
 .init_array    0x200001bc        0x4 C:/Users/Ege/DOCUME~1/MATLAB/R2020b/ARDUIN~1/ARDUIN~1/FASTER~2\libcore.a(CDC.o)
 .init_array    0x200001c0        0x4 C:/Users/Ege/DOCUME~1/MATLAB/R2020b/ARDUIN~1/ARDUIN~1/FASTER~2\libcore.a(USBCore.o)
 .init_array    0x200001c4        0x4 C:/Users/Ege/DOCUME~1/MATLAB/R2020b/ARDUIN~1/ARDUIN~1/FASTER~2\libcore.a(variant.o)
                0x200001c8                PROVIDE (__init_array_end, .)
                0x200001c8                . = ALIGN (0x4)
                0x200001c8                PROVIDE (__fini_array_start, .)
 *(SORT(.fini_array.*))
 *(.fini_array)
 .fini_array    0x200001c8        0x4 c:/programdata/matlab/supportpackages/r2020b/3p.instrset/arduinoide.instrset/tools/arm-none-eabi-gcc/4.8.3-2014q1/bin/../lib/gcc/arm-none-eabi/4.8.3/armv6-m/crtbegin.o
                0x200001cc                PROVIDE (__fini_array_end, .)
 *(.jcr*)
 .jcr           0x200001cc        0x0 c:/programdata/matlab/supportpackages/r2020b/3p.instrset/arduinoide.instrset/tools/arm-none-eabi-gcc/4.8.3-2014q1/bin/../lib/gcc/arm-none-eabi/4.8.3/armv6-m/crtbegin.o
 .jcr           0x200001cc        0x4 c:/programdata/matlab/supportpackages/r2020b/3p.instrset/arduinoide.instrset/tools/arm-none-eabi-gcc/4.8.3-2014q1/bin/../lib/gcc/arm-none-eabi/4.8.3/armv6-m/crtend.o
                0x200001d0                . = ALIGN (0x4)
                0x200001d0                __data_end__ = .

.igot.plt       0x200001d0        0x0 load address 0x00009d94
 .igot.plt      0x00000000        0x0 c:/programdata/matlab/supportpackages/r2020b/3p.instrset/arduinoide.instrset/tools/arm-none-eabi-gcc/4.8.3-2014q1/bin/../lib/gcc/arm-none-eabi/4.8.3/armv6-m/crtbegin.o

.bss            0x200001d0     0x525c load address 0x00009d98
                0x200001d0                . = ALIGN (0x4)
                0x200001d0                __bss_start__ = .
 *(.bss*)
 .bss           0x200001d0       0x1c c:/programdata/matlab/supportpackages/r2020b/3p.instrset/arduinoide.instrset/tools/arm-none-eabi-gcc/4.8.3-2014q1/bin/../lib/gcc/arm-none-eabi/4.8.3/armv6-m/crtbegin.o
 .bss.tcEnabled.12391
                0x200001ec        0x6 MW_PWMDriver.o
 .bss.PWMPinHandleMap
                0x200001f2        0x9 ArduinoPinHandleMap.o
                0x200001f2                PWMPinHandleMap
 *fill*         0x200001fb        0x1 
 .bss.rt_ExtModeInfo.11910
                0x200001fc       0x14 physicalmotortest.o
 .bss.physicalmotortest_M_
                0x20000210       0x48 physicalmotortest.o
 .bss.systemRan.11911
                0x20000258        0x8 physicalmotortest.o
 .bss.xcpModelChecksum0
                0x20000260        0x4 xcp_ext_common.o
                0x20000260                xcpModelChecksum0
 .bss.xcpModelStartRequest
                0x20000264        0x1 xcp_ext_common.o
                0x20000264                xcpModelStartRequest
 *fill*         0x20000265        0x3 
 .bss.xcpModelChecksum1
                0x20000268        0x4 xcp_ext_common.o
                0x20000268                xcpModelChecksum1
 .bss.xcpModelChecksum3
                0x2000026c        0x4 xcp_ext_common.o
                0x2000026c                xcpModelChecksum3
 .bss.xcpModelChecksum2
                0x20000270        0x4 xcp_ext_common.o
                0x20000270                xcpModelChecksum2
 .bss.xcpModelIntegerCode
                0x20000274        0x4 xcp_ext_common.o
                0x20000274                xcpModelIntegerCode
 .bss.xcpModelStopRequest
                0x20000278        0x1 xcp_ext_common.o
                0x20000278                xcpModelStopRequest
 *fill*         0x20000279        0x7 
 .bss.xcpBaseRateSimulationTime
                0x20000280        0x8 xcp_ext_common.o
 .bss.xcpCurrentSimulationTimeInMs
                0x20000288        0x8 xcp_ext_common.o
                0x20000288                xcpCurrentSimulationTimeInMs
 .bss.xcpExtmodeSimulationComplete
                0x20000290        0x1 xcp_ext_common.o
                0x20000290                xcpExtmodeSimulationComplete
 .bss.xcpClassicTriggerDirection
                0x20000291        0x1 xcp_ext_classic_trigger.o
                0x20000291                xcpClassicTriggerDirection
 *fill*         0x20000292        0x6 
 .bss.xcpOldSignalValue
                0x20000298        0x8 xcp_ext_classic_trigger.o
 .bss.xcpClassicTriggerSignalAddressExtension
                0x200002a0        0x1 xcp_ext_classic_trigger.o
                0x200002a0                xcpClassicTriggerSignalAddressExtension
 *fill*         0x200002a1        0x3 
 .bss.xcpTriggerCount
                0x200002a4        0x4 xcp_ext_classic_trigger.o
 .bss.xcpOldSignalValueAvailable
                0x200002a8        0x1 xcp_ext_classic_trigger.o
 *fill*         0x200002a9        0x3 
 .bss.xcpClassicTriggerDelay
                0x200002ac        0x4 xcp_ext_classic_trigger.o
                0x200002ac                xcpClassicTriggerDelay
 .bss.xcpClassicTriggerSignalAddress
                0x200002b0        0x4 xcp_ext_classic_trigger.o
                0x200002b0                xcpClassicTriggerSignalAddress
 .bss.xcpClassicTriggerEventId
                0x200002b4        0x2 xcp_ext_classic_trigger.o
                0x200002b4                xcpClassicTriggerEventId
 .bss.xcpClassicTriggerCancelRequest
                0x200002b6        0x1 xcp_ext_classic_trigger.o
                0x200002b6                xcpClassicTriggerCancelRequest
 .bss.xcpOldClassicTriggerSource
                0x200002b7        0x1 xcp_ext_classic_trigger.o
 .bss.xcpClassicTriggerSource
                0x200002b8        0x1 xcp_ext_classic_trigger.o
                0x200002b8                xcpClassicTriggerSource
 .bss.xcpSignalTriggerFired
                0x200002b9        0x1 xcp_ext_classic_trigger.o
 .bss.xcpClassicTriggerStatus
                0x200002ba        0x1 xcp_ext_classic_trigger.o
                0x200002ba                xcpClassicTriggerStatus
 .bss.xcpClassicTriggerMode
                0x200002bb        0x1 xcp_ext_classic_trigger.o
                0x200002bb                xcpClassicTriggerMode
 .bss.xcpClassicTriggerHoldOff
                0x200002bc        0x4 xcp_ext_classic_trigger.o
                0x200002bc                xcpClassicTriggerHoldOff
 .bss.xcpClassicTriggerLevel
                0x200002c0        0x8 xcp_ext_classic_trigger.o
                0x200002c0                xcpClassicTriggerLevel
 .bss.xcpTriggerEnabled
                0x200002c8        0x1 xcp_ext_classic_trigger.o
 .bss.xcpResourceProtectionStatus
                0x200002c9        0x1 xcp.o
 .bss.initialized
                0x200002ca        0x1 xcp.o
 .bss.xcpSessionStatus
                0x200002cb        0x1 xcp.o
 .bss.xcpStatus
                0x200002cc        0x1 xcp.o
 *fill*         0x200002cd        0x1 
 .bss.xcpSessionConfigurationId
                0x200002ce        0x2 xcp.o
 .bss.groupPacketLookup
                0x200002d0       0x10 xcp.o
 .bss.xcpUploadSize
                0x200002e0        0x1 xcp_standard.o
 *fill*         0x200002e1        0x3 
 .bss.xcpMta    0x200002e4        0x8 xcp_standard.o
 .bss.packetLookup
                0x200002ec        0x4 xcp_standard.o
 .bss.packetLookup
                0x200002f0        0x4 xcp_daq.o
 .bss.xcpDynamicDaqLists
                0x200002f4        0x8 xcp_daq.o
 .bss.xcpRunningEventCounter
                0x200002fc        0x4 xcp_daq.o
 .bss.xcpDaqLock
                0x20000300        0x4 xcp_daq.o
 .bss.packetLookup
                0x20000304        0x4 xcp_calibration.o
 .bss.rxLock    0x20000308        0x4 xcp_transport.o
 .bss.txFifo    0x2000030c       0x10 xcp_transport.o
 .bss.initialized
                0x2000031c        0x1 xcp_transport.o
 *fill*         0x2000031d        0x3 
 .bss.txLock    0x20000320        0x4 xcp_transport.o
 .bss.rxFifo    0x20000324        0x8 xcp_transport.o
 .bss.xcpMemMainChunk
                0x2000032c     0x2107 xcp_mem_default.o
 .bss.xcpMemReservedPoolsChunk
                0x20002433     0x223b xcp_mem_default.o
 *fill*         0x2000466e        0x2 
 .bss.xcpMemLock
                0x20004670        0x4 xcp_mem_default.o
 .bss.xcpMemPoolDescriptors
                0x20004674       0x64 xcp_mem_default.o
 .bss.xcpMemReservedPoolsChunkUsedBytes
                0x200046d8        0x4 xcp_mem_default.o
 .bss.forceBlocking
                0x200046dc        0x1 xcp_drv_rtiostream.o
 *fill*         0x200046dd        0x1 
 .bss.rxCounter
                0x200046de        0x2 xcp_frame_serial.o
 .bss.initialized
                0x200046e0        0x1 xcp_frame_serial.o
 *fill*         0x200046e1        0x3 
 .bss.firstRxCounterReceived
                0x200046e4        0x4 xcp_frame_serial.o
 .bss.txCounter
                0x200046e8        0x2 xcp_frame_serial.o
 .bss.receivedSyncByteE
                0x200046ea        0x1 rtiostream_serial_daemon.o
                0x200046ea                receivedSyncByteE
 .bss.OverrunFlag
                0x200046eb        0x1 ert_main.o
 .bss.IsrOverrun
                0x200046ec        0x4 ert_main.o
                0x200046ec                IsrOverrun
 .bss.usb_isr   0x200046f0        0x4 C:/Users/Ege/DOCUME~1/MATLAB/R2020b/ARDUIN~1/ARDUIN~1/FASTER~2\libcore.a(cortex_handlers.o)
 .bss._ulTickCount
                0x200046f4        0x4 C:/Users/Ege/DOCUME~1/MATLAB/R2020b/ARDUIN~1/ARDUIN~1/FASTER~2\libcore.a(delay.o)
 .bss.tcEnabled.12353
                0x200046f8        0x6 C:/Users/Ege/DOCUME~1/MATLAB/R2020b/ARDUIN~1/ARDUIN~1/FASTER~2\libcore.a(wiring_analog.o)
 *fill*         0x200046fe        0x2 
 .bss.SerialUSB
                0x20004700       0x34 C:/Users/Ege/DOCUME~1/MATLAB/R2020b/ARDUIN~1/ARDUIN~1/FASTER~2\libcore.a(CDC.o)
                0x20004700                SerialUSB
 .bss._ZZ12PluggableUSBvE3obj
                0x20004734        0x8 C:/Users/Ege/DOCUME~1/MATLAB/R2020b/ARDUIN~1/ARDUIN~1/FASTER~2\libcore.a(PluggableUSB.o)
 .bss._ZGVZ12PluggableUSBvE3obj
                0x2000473c        0x4 C:/Users/Ege/DOCUME~1/MATLAB/R2020b/ARDUIN~1/ARDUIN~1/FASTER~2\libcore.a(PluggableUSB.o)
 .bss._ZL14isEndpointHalt
                0x20004740        0x1 C:/Users/Ege/DOCUME~1/MATLAB/R2020b/ARDUIN~1/ARDUIN~1/FASTER~2\libcore.a(USBCore.o)
 *fill*         0x20004741        0x3 
 .bss.EndPoints
                0x20004744       0x28 C:/Users/Ege/DOCUME~1/MATLAB/R2020b/ARDUIN~1/ARDUIN~1/FASTER~2\libcore.a(USBCore.o)
                0x20004744                EndPoints
 .bss._pack_buffer
                0x2000476c      0x100 C:/Users/Ege/DOCUME~1/MATLAB/R2020b/ARDUIN~1/ARDUIN~1/FASTER~2\libcore.a(USBCore.o)
                0x2000476c                _pack_buffer
 .bss._pack_size
                0x2000486c        0x2 C:/Users/Ege/DOCUME~1/MATLAB/R2020b/ARDUIN~1/ARDUIN~1/FASTER~2\libcore.a(USBCore.o)
                0x2000486c                _pack_size
 .bss._ZL20LastTransmitTimedOut
                0x2000486e        0x7 C:/Users/Ege/DOCUME~1/MATLAB/R2020b/ARDUIN~1/ARDUIN~1/FASTER~2\libcore.a(USBCore.o)
 *fill*         0x20004875        0x3 
 .bss._ZL22udd_ep_in_cache_buffer
                0x20004878      0x1c0 C:/Users/Ege/DOCUME~1/MATLAB/R2020b/ARDUIN~1/ARDUIN~1/FASTER~2\libcore.a(USBCore.o)
 .bss._ZL23udd_ep_out_cache_buffer
                0x20004a38      0x1c0 C:/Users/Ege/DOCUME~1/MATLAB/R2020b/ARDUIN~1/ARDUIN~1/FASTER~2\libcore.a(USBCore.o)
 .bss._ZL10epHandlers
                0x20004bf8       0x1c C:/Users/Ege/DOCUME~1/MATLAB/R2020b/ARDUIN~1/ARDUIN~1/FASTER~2\libcore.a(USBCore.o)
 .bss._pack_message
                0x20004c14        0x1 C:/Users/Ege/DOCUME~1/MATLAB/R2020b/ARDUIN~1/ARDUIN~1/FASTER~2\libcore.a(USBCore.o)
                0x20004c14                _pack_message
 .bss._ZL21isRemoteWakeUpEnabled
                0x20004c15        0x1 C:/Users/Ege/DOCUME~1/MATLAB/R2020b/ARDUIN~1/ARDUIN~1/FASTER~2\libcore.a(USBCore.o)
 .bss._dry_run  0x20004c16        0x1 C:/Users/Ege/DOCUME~1/MATLAB/R2020b/ARDUIN~1/ARDUIN~1/FASTER~2\libcore.a(USBCore.o)
                0x20004c16                _dry_run
 .bss.USBDevice
                0x20004c17        0x1 C:/Users/Ege/DOCUME~1/MATLAB/R2020b/ARDUIN~1/ARDUIN~1/FASTER~2\libcore.a(USBCore.o)
                0x20004c17                USBDevice
 .bss._usbSetInterface
                0x20004c18        0x4 C:/Users/Ege/DOCUME~1/MATLAB/R2020b/ARDUIN~1/ARDUIN~1/FASTER~2\libcore.a(USBCore.o)
                0x20004c18                _usbSetInterface
 .bss.usbd      0x20004c1c      0x104 C:/Users/Ege/DOCUME~1/MATLAB/R2020b/ARDUIN~1/ARDUIN~1/FASTER~2\libcore.a(USBCore.o)
                0x20004c1c                usbd
 .bss._usbConfiguration
                0x20004d20        0x4 C:/Users/Ege/DOCUME~1/MATLAB/R2020b/ARDUIN~1/ARDUIN~1/FASTER~2\libcore.a(USBCore.o)
                0x20004d20                _usbConfiguration
 .bss.SerialHCI
                0x20004d24      0x23c C:/Users/Ege/DOCUME~1/MATLAB/R2020b/ARDUIN~1/ARDUIN~1/FASTER~2\libcore.a(variant.o)
                0x20004d24                SerialHCI
 .bss.Serial1   0x20004f60      0x23c C:/Users/Ege/DOCUME~1/MATLAB/R2020b/ARDUIN~1/ARDUIN~1/FASTER~2\libcore.a(variant.o)
                0x20004f60                Serial1
 .bss.Serial2   0x2000519c      0x23c C:/Users/Ege/DOCUME~1/MATLAB/R2020b/ARDUIN~1/ARDUIN~1/FASTER~2\libcore.a(variant.o)
                0x2000519c                Serial2
 .bss.sercom3   0x200053d8        0x4 C:/Users/Ege/DOCUME~1/MATLAB/R2020b/ARDUIN~1/ARDUIN~1/FASTER~2\libcore.a(variant.o)
                0x200053d8                sercom3
 .bss.sercom0   0x200053dc        0x4 C:/Users/Ege/DOCUME~1/MATLAB/R2020b/ARDUIN~1/ARDUIN~1/FASTER~2\libcore.a(variant.o)
                0x200053dc                sercom0
 .bss.sercom1   0x200053e0        0x4 C:/Users/Ege/DOCUME~1/MATLAB/R2020b/ARDUIN~1/ARDUIN~1/FASTER~2\libcore.a(variant.o)
                0x200053e0                sercom1
 .bss.sercom2   0x200053e4        0x4 C:/Users/Ege/DOCUME~1/MATLAB/R2020b/ARDUIN~1/ARDUIN~1/FASTER~2\libcore.a(variant.o)
                0x200053e4                sercom2
 .bss.sercom4   0x200053e8        0x4 C:/Users/Ege/DOCUME~1/MATLAB/R2020b/ARDUIN~1/ARDUIN~1/FASTER~2\libcore.a(variant.o)
                0x200053e8                sercom4
 .bss.sercom5   0x200053ec        0x4 C:/Users/Ege/DOCUME~1/MATLAB/R2020b/ARDUIN~1/ARDUIN~1/FASTER~2\libcore.a(variant.o)
                0x200053ec                sercom5
 .bss.__malloc_sbrk_start
                0x200053f0        0x4 c:/programdata/matlab/supportpackages/r2020b/3p.instrset/arduinoide.instrset/tools/arm-none-eabi-gcc/4.8.3-2014q1/bin/../lib/gcc/arm-none-eabi/4.8.3/../../../../arm-none-eabi/lib/armv6-m\libg_s.a(lib_a-nano-mallocr.o)
                0x200053f0                __malloc_sbrk_start
 .bss.__malloc_free_list
                0x200053f4        0x4 c:/programdata/matlab/supportpackages/r2020b/3p.instrset/arduinoide.instrset/tools/arm-none-eabi-gcc/4.8.3-2014q1/bin/../lib/gcc/arm-none-eabi/4.8.3/../../../../arm-none-eabi/lib/armv6-m\libg_s.a(lib_a-nano-mallocr.o)
                0x200053f4                __malloc_free_list
 .bss.heap_end.4243
                0x200053f8        0x4 c:/programdata/matlab/supportpackages/r2020b/3p.instrset/arduinoide.instrset/tools/arm-none-eabi-gcc/4.8.3-2014q1/bin/../lib/gcc/arm-none-eabi/4.8.3/../../../../arm-none-eabi/lib/armv6-m\libnosys.a(sbrk.o)
 *(COMMON)
 *fill*         0x200053fc        0x4 
 COMMON         0x20005400       0x24 physicalmotortest.o
                0x20005400                physicalmotortest_B
                0x20005408                physicalmotortest_DW
 COMMON         0x20005424        0x2 ert_main.o
                0x20005424                runModel
                0x20005425                stopRequested
 *fill*         0x20005426        0x2 
 COMMON         0x20005428        0x4 c:/programdata/matlab/supportpackages/r2020b/3p.instrset/arduinoide.instrset/tools/arm-none-eabi-gcc/4.8.3-2014q1/bin/../lib/gcc/arm-none-eabi/4.8.3/../../../../arm-none-eabi/lib/armv6-m\libg_s.a(lib_a-reent.o)
                0x20005428                errno
                0x2000542c                . = ALIGN (0x4)
                0x2000542c                __bss_end__ = .

.heap           0x2000542c        0x0
                0x2000542c                __end__ = .
                0x2000542c                PROVIDE (end, .)
 *(.heap*)
                0x2000542c                __HeapLimit = .

.stack_dummy    0x2000542c        0x0
 *(.stack*)
                0x20008000                __StackTop = (ORIGIN (RAM) + 0x8000)
                0x20008000                __StackLimit = (__StackTop - SIZEOF (.stack_dummy))
                0x20008000                PROVIDE (__stack, __StackTop)
                0x20007fff                __ram_end__ = ((ORIGIN (RAM) + 0x8000) - 0x1)
                0x00000001                ASSERT ((__StackLimit >= __HeapLimit), region RAM overflowed with stack)
OUTPUT(../physicalmotortest.elf elf32-littlearm)

.ARM.attributes
                0x00000000       0x28
 .ARM.attributes
                0x00000000       0x1e c:/programdata/matlab/supportpackages/r2020b/3p.instrset/arduinoide.instrset/tools/arm-none-eabi-gcc/4.8.3-2014q1/bin/../lib/gcc/arm-none-eabi/4.8.3/armv6-m/crti.o
 .ARM.attributes
                0x0000001e       0x2c c:/programdata/matlab/supportpackages/r2020b/3p.instrset/arduinoide.instrset/tools/arm-none-eabi-gcc/4.8.3-2014q1/bin/../lib/gcc/arm-none-eabi/4.8.3/armv6-m/crtbegin.o
 .ARM.attributes
                0x0000004a       0x32 MW_PWM.o
 .ARM.attributes
                0x0000007c       0x32 MW_PWMDriver.o
 .ARM.attributes
                0x000000ae       0x32 ArduinoPinHandleMap.o
 .ARM.attributes
                0x000000e0       0x32 xcp_ext_work.o
 .ARM.attributes
                0x00000112       0x32 physicalmotortest.o
 .ARM.attributes
                0x00000144       0x32 physicalmotortest_data.o
 .ARM.attributes
                0x00000176       0x32 xcp_ext_common.o
 .ARM.attributes
                0x000001a8       0x32 xcp_ext_classic_trigger.o
 .ARM.attributes
                0x000001da       0x32 xcp.o
 .ARM.attributes
                0x0000020c       0x32 xcp_standard.o
 .ARM.attributes
                0x0000023e       0x32 xcp_daq.o
 .ARM.attributes
                0x00000270       0x32 xcp_calibration.o
 .ARM.attributes
                0x000002a2       0x32 xcp_fifo.o
 .ARM.attributes
                0x000002d4       0x32 xcp_transport.o
 .ARM.attributes
                0x00000306       0x32 xcp_mem_default.o
 .ARM.attributes
                0x00000338       0x32 xcp_drv_rtiostream.o
 .ARM.attributes
                0x0000036a       0x32 xcp_frame_serial.o
 .ARM.attributes
                0x0000039c       0x32 xcp_ext_param_default_serial.o
 .ARM.attributes
                0x000003ce       0x32 MW_ArduinoHWInit.o
 .ARM.attributes
                0x00000400       0x32 io_wrappers.o
 .ARM.attributes
                0x00000432       0x32 arduinoARM_M0plusScheduler.o
 .ARM.attributes
                0x00000464       0x32 m0m1m0plus_multitasking.o
 .ARM.attributes
                0x00000496       0x32 rtiostream_serial_daemon.o
 .ARM.attributes
                0x000004c8       0x32 sys_arch.o
 .ARM.attributes
                0x000004fa       0x32 ert_main.o
 .ARM.attributes
                0x0000052c       0x2c c:/programdata/matlab/supportpackages/r2020b/3p.instrset/arduinoide.instrset/tools/arm-none-eabi-gcc/4.8.3-2014q1/bin/../lib/gcc/arm-none-eabi/4.8.3/../../../../arm-none-eabi/lib/armv6-m\libm.a(lib_a-w_fmod.o)
 .ARM.attributes
                0x00000558       0x2c c:/programdata/matlab/supportpackages/r2020b/3p.instrset/arduinoide.instrset/tools/arm-none-eabi-gcc/4.8.3-2014q1/bin/../lib/gcc/arm-none-eabi/4.8.3/../../../../arm-none-eabi/lib/armv6-m\libm.a(lib_a-e_fmod.o)
 .ARM.attributes
                0x00000584       0x2c c:/programdata/matlab/supportpackages/r2020b/3p.instrset/arduinoide.instrset/tools/arm-none-eabi-gcc/4.8.3-2014q1/bin/../lib/gcc/arm-none-eabi/4.8.3/../../../../arm-none-eabi/lib/armv6-m\libm.a(lib_a-s_fpclassify.o)
 .ARM.attributes
                0x000005b0       0x2c c:/programdata/matlab/supportpackages/r2020b/3p.instrset/arduinoide.instrset/tools/arm-none-eabi-gcc/4.8.3-2014q1/bin/../lib/gcc/arm-none-eabi/4.8.3/../../../../arm-none-eabi/lib/armv6-m\libm.a(lib_a-s_lib_ver.o)
 .ARM.attributes
                0x000005dc       0x2c c:/programdata/matlab/supportpackages/r2020b/3p.instrset/arduinoide.instrset/tools/arm-none-eabi-gcc/4.8.3-2014q1/bin/../lib/gcc/arm-none-eabi/4.8.3/../../../../arm-none-eabi/lib/armv6-m\libm.a(lib_a-s_matherr.o)
 .ARM.attributes
                0x00000608       0x32 C:/Users/Ege/DOCUME~1/MATLAB/R2020b/ARDUIN~1/ARDUIN~1/FASTER~2\libcore.a(cortex_handlers.o)
 .ARM.attributes
                0x0000063a       0x32 C:/Users/Ege/DOCUME~1/MATLAB/R2020b/ARDUIN~1/ARDUIN~1/FASTER~2\libcore.a(hooks.o)
 .ARM.attributes
                0x0000066c       0x32 C:/Users/Ege/DOCUME~1/MATLAB/R2020b/ARDUIN~1/ARDUIN~1/FASTER~2\libcore.a(delay.o)
 .ARM.attributes
                0x0000069e       0x32 C:/Users/Ege/DOCUME~1/MATLAB/R2020b/ARDUIN~1/ARDUIN~1/FASTER~2\libcore.a(startup.o)
 .ARM.attributes
                0x000006d0       0x32 C:/Users/Ege/DOCUME~1/MATLAB/R2020b/ARDUIN~1/ARDUIN~1/FASTER~2\libcore.a(wiring.o)
 .ARM.attributes
                0x00000702       0x32 C:/Users/Ege/DOCUME~1/MATLAB/R2020b/ARDUIN~1/ARDUIN~1/FASTER~2\libcore.a(wiring_analog.o)
 .ARM.attributes
                0x00000734       0x32 C:/Users/Ege/DOCUME~1/MATLAB/R2020b/ARDUIN~1/ARDUIN~1/FASTER~2\libcore.a(wiring_digital.o)
 .ARM.attributes
                0x00000766       0x32 C:/Users/Ege/DOCUME~1/MATLAB/R2020b/ARDUIN~1/ARDUIN~1/FASTER~2\libcore.a(wiring_private.o)
 .ARM.attributes
                0x00000798       0x32 C:/Users/Ege/DOCUME~1/MATLAB/R2020b/ARDUIN~1/ARDUIN~1/FASTER~2\libcore.a(Reset.o)
 .ARM.attributes
                0x000007ca       0x32 C:/Users/Ege/DOCUME~1/MATLAB/R2020b/ARDUIN~1/ARDUIN~1/FASTER~2\libcore.a(Uart.o)
 .ARM.attributes
                0x000007fc       0x32 C:/Users/Ege/DOCUME~1/MATLAB/R2020b/ARDUIN~1/ARDUIN~1/FASTER~2\libcore.a(CDC.o)
 .ARM.attributes
                0x0000082e       0x32 C:/Users/Ege/DOCUME~1/MATLAB/R2020b/ARDUIN~1/ARDUIN~1/FASTER~2\libcore.a(PluggableUSB.o)
 .ARM.attributes
                0x00000860       0x32 C:/Users/Ege/DOCUME~1/MATLAB/R2020b/ARDUIN~1/ARDUIN~1/FASTER~2\libcore.a(USBCore.o)
 .ARM.attributes
                0x00000892       0x32 C:/Users/Ege/DOCUME~1/MATLAB/R2020b/ARDUIN~1/ARDUIN~1/FASTER~2\libcore.a(variant.o)
 .ARM.attributes
                0x000008c4       0x32 C:/Users/Ege/DOCUME~1/MATLAB/R2020b/ARDUIN~1/ARDUIN~1/FASTER~2\libcore.a(new.o)
 .ARM.attributes
                0x000008f6       0x32 C:/Users/Ege/DOCUME~1/MATLAB/R2020b/ARDUIN~1/ARDUIN~1/FASTER~2\libcore.a(Print.o)
 .ARM.attributes
                0x00000928       0x32 C:/Users/Ege/DOCUME~1/MATLAB/R2020b/ARDUIN~1/ARDUIN~1/FASTER~2\libcore.a(SERCOM.o)
 .ARM.attributes
                0x0000095a       0x1e c:/programdata/matlab/supportpackages/r2020b/3p.instrset/arduinoide.instrset/tools/arm-none-eabi-gcc/4.8.3-2014q1/bin/../lib/gcc/arm-none-eabi/4.8.3/armv6-m\libgcc.a(_thumb1_case_uqi.o)
 .ARM.attributes
                0x00000978       0x1e c:/programdata/matlab/supportpackages/r2020b/3p.instrset/arduinoide.instrset/tools/arm-none-eabi-gcc/4.8.3-2014q1/bin/../lib/gcc/arm-none-eabi/4.8.3/armv6-m\libgcc.a(_udivsi3.o)
 .ARM.attributes
                0x00000996       0x1e c:/programdata/matlab/supportpackages/r2020b/3p.instrset/arduinoide.instrset/tools/arm-none-eabi-gcc/4.8.3-2014q1/bin/../lib/gcc/arm-none-eabi/4.8.3/armv6-m\libgcc.a(_dvmd_tls.o)
 .ARM.attributes
                0x000009b4       0x1e c:/programdata/matlab/supportpackages/r2020b/3p.instrset/arduinoide.instrset/tools/arm-none-eabi-gcc/4.8.3-2014q1/bin/../lib/gcc/arm-none-eabi/4.8.3/armv6-m\libgcc.a(_arm_cmpdf2.o)
 .ARM.attributes
                0x000009d2       0x2c c:/programdata/matlab/supportpackages/r2020b/3p.instrset/arduinoide.instrset/tools/arm-none-eabi-gcc/4.8.3-2014q1/bin/../lib/gcc/arm-none-eabi/4.8.3/armv6-m\libgcc.a(_fixunsdfsi.o)
 .ARM.attributes
                0x000009fe       0x2c c:/programdata/matlab/supportpackages/r2020b/3p.instrset/arduinoide.instrset/tools/arm-none-eabi-gcc/4.8.3-2014q1/bin/../lib/gcc/arm-none-eabi/4.8.3/armv6-m\libgcc.a(adddf3.o)
 .ARM.attributes
                0x00000a2a       0x2c c:/programdata/matlab/supportpackages/r2020b/3p.instrset/arduinoide.instrset/tools/arm-none-eabi-gcc/4.8.3-2014q1/bin/../lib/gcc/arm-none-eabi/4.8.3/armv6-m\libgcc.a(divdf3.o)
 .ARM.attributes
                0x00000a56       0x2c c:/programdata/matlab/supportpackages/r2020b/3p.instrset/arduinoide.instrset/tools/arm-none-eabi-gcc/4.8.3-2014q1/bin/../lib/gcc/arm-none-eabi/4.8.3/armv6-m\libgcc.a(eqdf2.o)
 .ARM.attributes
                0x00000a82       0x2c c:/programdata/matlab/supportpackages/r2020b/3p.instrset/arduinoide.instrset/tools/arm-none-eabi-gcc/4.8.3-2014q1/bin/../lib/gcc/arm-none-eabi/4.8.3/armv6-m\libgcc.a(gedf2.o)
 .ARM.attributes
                0x00000aae       0x2c c:/programdata/matlab/supportpackages/r2020b/3p.instrset/arduinoide.instrset/tools/arm-none-eabi-gcc/4.8.3-2014q1/bin/../lib/gcc/arm-none-eabi/4.8.3/armv6-m\libgcc.a(ledf2.o)
 .ARM.attributes
                0x00000ada       0x2c c:/programdata/matlab/supportpackages/r2020b/3p.instrset/arduinoide.instrset/tools/arm-none-eabi-gcc/4.8.3-2014q1/bin/../lib/gcc/arm-none-eabi/4.8.3/armv6-m\libgcc.a(muldf3.o)
 .ARM.attributes
                0x00000b06       0x2c c:/programdata/matlab/supportpackages/r2020b/3p.instrset/arduinoide.instrset/tools/arm-none-eabi-gcc/4.8.3-2014q1/bin/../lib/gcc/arm-none-eabi/4.8.3/armv6-m\libgcc.a(subdf3.o)
 .ARM.attributes
                0x00000b32       0x2c c:/programdata/matlab/supportpackages/r2020b/3p.instrset/arduinoide.instrset/tools/arm-none-eabi-gcc/4.8.3-2014q1/bin/../lib/gcc/arm-none-eabi/4.8.3/armv6-m\libgcc.a(fixdfsi.o)
 .ARM.attributes
                0x00000b5e       0x2c c:/programdata/matlab/supportpackages/r2020b/3p.instrset/arduinoide.instrset/tools/arm-none-eabi-gcc/4.8.3-2014q1/bin/../lib/gcc/arm-none-eabi/4.8.3/armv6-m\libgcc.a(floatunsidf.o)
 .ARM.attributes
                0x00000b8a       0x1e c:/programdata/matlab/supportpackages/r2020b/3p.instrset/arduinoide.instrset/tools/arm-none-eabi-gcc/4.8.3-2014q1/bin/../lib/gcc/arm-none-eabi/4.8.3/armv6-m\libgcc.a(_clzsi2.o)
 .ARM.attributes
                0x00000ba8       0x2c c:/programdata/matlab/supportpackages/r2020b/3p.instrset/arduinoide.instrset/tools/arm-none-eabi-gcc/4.8.3-2014q1/bin/../lib/gcc/arm-none-eabi/4.8.3/../../../../arm-none-eabi/lib/armv6-m\libg_s.a(lib_a-errno.o)
 .ARM.attributes
                0x00000bd4       0x2c c:/programdata/matlab/supportpackages/r2020b/3p.instrset/arduinoide.instrset/tools/arm-none-eabi-gcc/4.8.3-2014q1/bin/../lib/gcc/arm-none-eabi/4.8.3/../../../../arm-none-eabi/lib/armv6-m\libg_s.a(lib_a-exit.o)
 .ARM.attributes
                0x00000c00       0x2c c:/programdata/matlab/supportpackages/r2020b/3p.instrset/arduinoide.instrset/tools/arm-none-eabi-gcc/4.8.3-2014q1/bin/../lib/gcc/arm-none-eabi/4.8.3/../../../../arm-none-eabi/lib/armv6-m\libg_s.a(lib_a-impure.o)
 .ARM.attributes
                0x00000c2c       0x2c c:/programdata/matlab/supportpackages/r2020b/3p.instrset/arduinoide.instrset/tools/arm-none-eabi-gcc/4.8.3-2014q1/bin/../lib/gcc/arm-none-eabi/4.8.3/../../../../arm-none-eabi/lib/armv6-m\libg_s.a(lib_a-init.o)
 .ARM.attributes
                0x00000c58       0x2c c:/programdata/matlab/supportpackages/r2020b/3p.instrset/arduinoide.instrset/tools/arm-none-eabi-gcc/4.8.3-2014q1/bin/../lib/gcc/arm-none-eabi/4.8.3/../../../../arm-none-eabi/lib/armv6-m\libg_s.a(lib_a-malloc.o)
 .ARM.attributes
                0x00000c84       0x2c c:/programdata/matlab/supportpackages/r2020b/3p.instrset/arduinoide.instrset/tools/arm-none-eabi-gcc/4.8.3-2014q1/bin/../lib/gcc/arm-none-eabi/4.8.3/../../../../arm-none-eabi/lib/armv6-m\libg_s.a(lib_a-memcpy-stub.o)
 .ARM.attributes
                0x00000cb0       0x2c c:/programdata/matlab/supportpackages/r2020b/3p.instrset/arduinoide.instrset/tools/arm-none-eabi-gcc/4.8.3-2014q1/bin/../lib/gcc/arm-none-eabi/4.8.3/../../../../arm-none-eabi/lib/armv6-m\libg_s.a(lib_a-memset.o)
 .ARM.attributes
                0x00000cdc       0x2c c:/programdata/matlab/supportpackages/r2020b/3p.instrset/arduinoide.instrset/tools/arm-none-eabi-gcc/4.8.3-2014q1/bin/../lib/gcc/arm-none-eabi/4.8.3/../../../../arm-none-eabi/lib/armv6-m\libg_s.a(lib_a-nano-freer.o)
 .ARM.attributes
                0x00000d08       0x2c c:/programdata/matlab/supportpackages/r2020b/3p.instrset/arduinoide.instrset/tools/arm-none-eabi-gcc/4.8.3-2014q1/bin/../lib/gcc/arm-none-eabi/4.8.3/../../../../arm-none-eabi/lib/armv6-m\libg_s.a(lib_a-nano-mallocr.o)
 .ARM.attributes
                0x00000d34       0x2c c:/programdata/matlab/supportpackages/r2020b/3p.instrset/arduinoide.instrset/tools/arm-none-eabi-gcc/4.8.3-2014q1/bin/../lib/gcc/arm-none-eabi/4.8.3/../../../../arm-none-eabi/lib/armv6-m\libg_s.a(lib_a-sbrkr.o)
 .ARM.attributes
                0x00000d60       0x2c c:/programdata/matlab/supportpackages/r2020b/3p.instrset/arduinoide.instrset/tools/arm-none-eabi-gcc/4.8.3-2014q1/bin/../lib/gcc/arm-none-eabi/4.8.3/../../../../arm-none-eabi/lib/armv6-m\libg_s.a(lib_a-strlen.o)
 .ARM.attributes
                0x00000d8c       0x2c c:/programdata/matlab/supportpackages/r2020b/3p.instrset/arduinoide.instrset/tools/arm-none-eabi-gcc/4.8.3-2014q1/bin/../lib/gcc/arm-none-eabi/4.8.3/../../../../arm-none-eabi/lib/armv6-m\libg_s.a(lib_a-reent.o)
 .ARM.attributes
                0x00000db8       0x2c c:/programdata/matlab/supportpackages/r2020b/3p.instrset/arduinoide.instrset/tools/arm-none-eabi-gcc/4.8.3-2014q1/bin/../lib/gcc/arm-none-eabi/4.8.3/../../../../arm-none-eabi/lib/armv6-m\libnosys.a(sbrk.o)
 .ARM.attributes
                0x00000de4       0x2c c:/programdata/matlab/supportpackages/r2020b/3p.instrset/arduinoide.instrset/tools/arm-none-eabi-gcc/4.8.3-2014q1/bin/../lib/gcc/arm-none-eabi/4.8.3/../../../../arm-none-eabi/lib/armv6-m\libnosys.a(_exit.o)
 .ARM.attributes
                0x00000e10       0x2c c:/programdata/matlab/supportpackages/r2020b/3p.instrset/arduinoide.instrset/tools/arm-none-eabi-gcc/4.8.3-2014q1/bin/../lib/gcc/arm-none-eabi/4.8.3/armv6-m/crtend.o
 .ARM.attributes
                0x00000e3c       0x1e c:/programdata/matlab/supportpackages/r2020b/3p.instrset/arduinoide.instrset/tools/arm-none-eabi-gcc/4.8.3-2014q1/bin/../lib/gcc/arm-none-eabi/4.8.3/armv6-m/crtn.o

.comment        0x00000000       0x70
 .comment       0x00000000       0x70 MW_PWM.o
                                 0x71 (size before relaxing)
 .comment       0x00000000       0x71 MW_PWMDriver.o
 .comment       0x00000000       0x71 ArduinoPinHandleMap.o
 .comment       0x00000000       0x71 xcp_ext_work.o
 .comment       0x00000000       0x71 physicalmotortest.o
 .comment       0x00000000       0x71 physicalmotortest_data.o
 .comment       0x00000000       0x71 xcp_ext_common.o
 .comment       0x00000000       0x71 xcp_ext_classic_trigger.o
 .comment       0x00000000       0x71 xcp.o
 .comment       0x00000000       0x71 xcp_standard.o
 .comment       0x00000000       0x71 xcp_daq.o
 .comment       0x00000000       0x71 xcp_calibration.o
 .comment       0x00000000       0x71 xcp_fifo.o
 .comment       0x00000000       0x71 xcp_transport.o
 .comment       0x00000000       0x71 xcp_mem_default.o
 .comment       0x00000000       0x71 xcp_drv_rtiostream.o
 .comment       0x00000000       0x71 xcp_frame_serial.o
 .comment       0x00000000       0x71 xcp_ext_param_default_serial.o
 .comment       0x00000000       0x71 MW_ArduinoHWInit.o
 .comment       0x00000000       0x71 io_wrappers.o
 .comment       0x00000000       0x71 arduinoARM_M0plusScheduler.o
 .comment       0x00000000       0x71 m0m1m0plus_multitasking.o
 .comment       0x00000000       0x71 rtiostream_serial_daemon.o
 .comment       0x00000000       0x71 sys_arch.o
 .comment       0x00000000       0x71 ert_main.o
 .comment       0x00000000       0x71 C:/Users/Ege/DOCUME~1/MATLAB/R2020b/ARDUIN~1/ARDUIN~1/FASTER~2\libcore.a(cortex_handlers.o)
 .comment       0x00000000       0x71 C:/Users/Ege/DOCUME~1/MATLAB/R2020b/ARDUIN~1/ARDUIN~1/FASTER~2\libcore.a(hooks.o)
 .comment       0x00000000       0x71 C:/Users/Ege/DOCUME~1/MATLAB/R2020b/ARDUIN~1/ARDUIN~1/FASTER~2\libcore.a(delay.o)
 .comment       0x00000000       0x71 C:/Users/Ege/DOCUME~1/MATLAB/R2020b/ARDUIN~1/ARDUIN~1/FASTER~2\libcore.a(startup.o)
 .comment       0x00000000       0x71 C:/Users/Ege/DOCUME~1/MATLAB/R2020b/ARDUIN~1/ARDUIN~1/FASTER~2\libcore.a(wiring.o)
 .comment       0x00000000       0x71 C:/Users/Ege/DOCUME~1/MATLAB/R2020b/ARDUIN~1/ARDUIN~1/FASTER~2\libcore.a(wiring_analog.o)
 .comment       0x00000000       0x71 C:/Users/Ege/DOCUME~1/MATLAB/R2020b/ARDUIN~1/ARDUIN~1/FASTER~2\libcore.a(wiring_digital.o)
 .comment       0x00000000       0x71 C:/Users/Ege/DOCUME~1/MATLAB/R2020b/ARDUIN~1/ARDUIN~1/FASTER~2\libcore.a(wiring_private.o)
 .comment       0x00000000       0x71 C:/Users/Ege/DOCUME~1/MATLAB/R2020b/ARDUIN~1/ARDUIN~1/FASTER~2\libcore.a(Reset.o)
 .comment       0x00000000       0x71 C:/Users/Ege/DOCUME~1/MATLAB/R2020b/ARDUIN~1/ARDUIN~1/FASTER~2\libcore.a(Uart.o)
 .comment       0x00000000       0x71 C:/Users/Ege/DOCUME~1/MATLAB/R2020b/ARDUIN~1/ARDUIN~1/FASTER~2\libcore.a(CDC.o)
 .comment       0x00000000       0x71 C:/Users/Ege/DOCUME~1/MATLAB/R2020b/ARDUIN~1/ARDUIN~1/FASTER~2\libcore.a(PluggableUSB.o)
 .comment       0x00000000       0x71 C:/Users/Ege/DOCUME~1/MATLAB/R2020b/ARDUIN~1/ARDUIN~1/FASTER~2\libcore.a(USBCore.o)
 .comment       0x00000000       0x71 C:/Users/Ege/DOCUME~1/MATLAB/R2020b/ARDUIN~1/ARDUIN~1/FASTER~2\libcore.a(variant.o)
 .comment       0x00000000       0x71 C:/Users/Ege/DOCUME~1/MATLAB/R2020b/ARDUIN~1/ARDUIN~1/FASTER~2\libcore.a(new.o)
 .comment       0x00000000       0x71 C:/Users/Ege/DOCUME~1/MATLAB/R2020b/ARDUIN~1/ARDUIN~1/FASTER~2\libcore.a(Print.o)
 .comment       0x00000000       0x71 C:/Users/Ege/DOCUME~1/MATLAB/R2020b/ARDUIN~1/ARDUIN~1/FASTER~2\libcore.a(SERCOM.o)

.debug_info     0x00000000    0x11f58
 .debug_info    0x00000000      0x603 MW_PWM.o
 .debug_info    0x00000603     0x3962 MW_PWMDriver.o
 .debug_info    0x00003f65       0x99 ArduinoPinHandleMap.o
 .debug_info    0x00003ffe      0x826 xcp_ext_work.o
 .debug_info    0x00004824      0x723 physicalmotortest.o
 .debug_info    0x00004f47      0x1c0 physicalmotortest_data.o
 .debug_info    0x00005107      0x838 xcp_ext_common.o
 .debug_info    0x0000593f      0x5c6 xcp_ext_classic_trigger.o
 .debug_info    0x00005f05     0x149a xcp.o
 .debug_info    0x0000739f     0x111c xcp_standard.o
 .debug_info    0x000084bb     0x1fd6 xcp_daq.o
 .debug_info    0x0000a491      0x803 xcp_calibration.o
 .debug_info    0x0000ac94      0x324 xcp_fifo.o
 .debug_info    0x0000afb8      0xdcc xcp_transport.o
 .debug_info    0x0000bd84      0x938 xcp_mem_default.o
 .debug_info    0x0000c6bc      0x5d1 xcp_drv_rtiostream.o
 .debug_info    0x0000cc8d      0xa36 xcp_frame_serial.o
 .debug_info    0x0000d6c3      0x257 xcp_ext_param_default_serial.o
 .debug_info    0x0000d91a      0x24d MW_ArduinoHWInit.o
 .debug_info    0x0000db67      0xac7 io_wrappers.o
 .debug_info    0x0000e62e     0x292a arduinoARM_M0plusScheduler.o
 .debug_info    0x00010f58      0x1c3 m0m1m0plus_multitasking.o
 .debug_info    0x0001111b      0x534 rtiostream_serial_daemon.o
 .debug_info    0x0001164f      0x276 sys_arch.o
 .debug_info    0x000118c5      0x693 ert_main.o

.debug_abbrev   0x00000000     0x34e6
 .debug_abbrev  0x00000000      0x1ba MW_PWM.o
 .debug_abbrev  0x000001ba      0x335 MW_PWMDriver.o
 .debug_abbrev  0x000004ef       0x47 ArduinoPinHandleMap.o
 .debug_abbrev  0x00000536      0x218 xcp_ext_work.o
 .debug_abbrev  0x0000074e      0x1f4 physicalmotortest.o
 .debug_abbrev  0x00000942       0x85 physicalmotortest_data.o
 .debug_abbrev  0x000009c7      0x23d xcp_ext_common.o
 .debug_abbrev  0x00000c04      0x156 xcp_ext_classic_trigger.o
 .debug_abbrev  0x00000d5a      0x474 xcp.o
 .debug_abbrev  0x000011ce      0x41f xcp_standard.o
 .debug_abbrev  0x000015ed      0x492 xcp_daq.o
 .debug_abbrev  0x00001a7f      0x2cd xcp_calibration.o
 .debug_abbrev  0x00001d4c      0x121 xcp_fifo.o
 .debug_abbrev  0x00001e6d      0x2bb xcp_transport.o
 .debug_abbrev  0x00002128      0x223 xcp_mem_default.o
 .debug_abbrev  0x0000234b      0x16e xcp_drv_rtiostream.o
 .debug_abbrev  0x000024b9      0x256 xcp_frame_serial.o
 .debug_abbrev  0x0000270f       0x95 xcp_ext_param_default_serial.o
 .debug_abbrev  0x000027a4      0x10a MW_ArduinoHWInit.o
 .debug_abbrev  0x000028ae      0x2fb io_wrappers.o
 .debug_abbrev  0x00002ba9      0x39b arduinoARM_M0plusScheduler.o
 .debug_abbrev  0x00002f44       0xab m0m1m0plus_multitasking.o
 .debug_abbrev  0x00002fef      0x1e3 rtiostream_serial_daemon.o
 .debug_abbrev  0x000031d2      0x132 sys_arch.o
 .debug_abbrev  0x00003304      0x1e2 ert_main.o

.debug_loc      0x00000000     0x62f1
 .debug_loc     0x00000000      0x328 MW_PWM.o
 .debug_loc     0x00000328      0x530 MW_PWMDriver.o
 .debug_loc     0x00000858      0x2e7 xcp_ext_work.o
 .debug_loc     0x00000b3f       0x28 physicalmotortest.o
 .debug_loc     0x00000b67      0x349 xcp_ext_common.o
 .debug_loc     0x00000eb0      0x12e xcp_ext_classic_trigger.o
 .debug_loc     0x00000fde      0xc6f xcp.o
 .debug_loc     0x00001c4d      0x986 xcp_standard.o
 .debug_loc     0x000025d3     0x190e xcp_daq.o
 .debug_loc     0x00003ee1      0x25b xcp_calibration.o
 .debug_loc     0x0000413c       0x21 xcp_fifo.o
 .debug_loc     0x0000415d      0x803 xcp_transport.o
 .debug_loc     0x00004960      0x5e7 xcp_mem_default.o
 .debug_loc     0x00004f47      0x5a8 xcp_drv_rtiostream.o
 .debug_loc     0x000054ef      0x749 xcp_frame_serial.o
 .debug_loc     0x00005c38      0x2ee io_wrappers.o
 .debug_loc     0x00005f26      0x1bf arduinoARM_M0plusScheduler.o
 .debug_loc     0x000060e5      0x20c rtiostream_serial_daemon.o

.debug_aranges  0x00000000      0x8a8
 .debug_aranges
                0x00000000       0x78 MW_PWM.o
 .debug_aranges
                0x00000078       0x28 MW_PWMDriver.o
 .debug_aranges
                0x000000a0       0x18 ArduinoPinHandleMap.o
 .debug_aranges
                0x000000b8       0x80 xcp_ext_work.o
 .debug_aranges
                0x00000138       0x30 physicalmotortest.o
 .debug_aranges
                0x00000168       0x18 physicalmotortest_data.o
 .debug_aranges
                0x00000180       0x50 xcp_ext_common.o
 .debug_aranges
                0x000001d0       0x30 xcp_ext_classic_trigger.o
 .debug_aranges
                0x00000200       0xd8 xcp.o
 .debug_aranges
                0x000002d8       0xc0 xcp_standard.o
 .debug_aranges
                0x00000398       0xf0 xcp_daq.o
 .debug_aranges
                0x00000488       0x60 xcp_calibration.o
 .debug_aranges
                0x000004e8       0x48 xcp_fifo.o
 .debug_aranges
                0x00000530       0x90 xcp_transport.o
 .debug_aranges
                0x000005c0       0x58 xcp_mem_default.o
 .debug_aranges
                0x00000618       0x40 xcp_drv_rtiostream.o
 .debug_aranges
                0x00000658       0x80 xcp_frame_serial.o
 .debug_aranges
                0x000006d8       0x30 xcp_ext_param_default_serial.o
 .debug_aranges
                0x00000708       0x30 MW_ArduinoHWInit.o
 .debug_aranges
                0x00000738       0x50 io_wrappers.o
 .debug_aranges
                0x00000788       0x68 arduinoARM_M0plusScheduler.o
 .debug_aranges
                0x000007f0       0x28 m0m1m0plus_multitasking.o
 .debug_aranges
                0x00000818       0x40 rtiostream_serial_daemon.o
 .debug_aranges
                0x00000858       0x28 sys_arch.o
 .debug_aranges
                0x00000880       0x28 ert_main.o

.debug_ranges   0x00000000      0xa68
 .debug_ranges  0x00000000       0x98 MW_PWM.o
 .debug_ranges  0x00000098       0x30 MW_PWMDriver.o
 .debug_ranges  0x000000c8       0x88 xcp_ext_work.o
 .debug_ranges  0x00000150       0x80 physicalmotortest.o
 .debug_ranges  0x000001d0       0x78 xcp_ext_common.o
 .debug_ranges  0x00000248       0x20 xcp_ext_classic_trigger.o
 .debug_ranges  0x00000268      0x120 xcp.o
 .debug_ranges  0x00000388       0xf8 xcp_standard.o
 .debug_ranges  0x00000480      0x1d0 xcp_daq.o
 .debug_ranges  0x00000650       0x68 xcp_calibration.o
 .debug_ranges  0x000006b8       0x38 xcp_fifo.o
 .debug_ranges  0x000006f0       0x80 xcp_transport.o
 .debug_ranges  0x00000770       0x48 xcp_mem_default.o
 .debug_ranges  0x000007b8       0x30 xcp_drv_rtiostream.o
 .debug_ranges  0x000007e8       0x70 xcp_frame_serial.o
 .debug_ranges  0x00000858       0x20 xcp_ext_param_default_serial.o
 .debug_ranges  0x00000878       0x20 MW_ArduinoHWInit.o
 .debug_ranges  0x00000898       0x40 io_wrappers.o
 .debug_ranges  0x000008d8       0xc0 arduinoARM_M0plusScheduler.o
 .debug_ranges  0x00000998       0x18 m0m1m0plus_multitasking.o
 .debug_ranges  0x000009b0       0x68 rtiostream_serial_daemon.o
 .debug_ranges  0x00000a18       0x18 sys_arch.o
 .debug_ranges  0x00000a30       0x38 ert_main.o

.debug_line     0x00000000     0x78be
 .debug_line    0x00000000      0x509 MW_PWM.o
 .debug_line    0x00000509      0x595 MW_PWMDriver.o
 .debug_line    0x00000a9e       0x94 ArduinoPinHandleMap.o
 .debug_line    0x00000b32      0x502 xcp_ext_work.o
 .debug_line    0x00001034      0x3f5 physicalmotortest.o
 .debug_line    0x00001429      0x275 physicalmotortest_data.o
 .debug_line    0x0000169e      0x4eb xcp_ext_common.o
 .debug_line    0x00001b89      0x3f2 xcp_ext_classic_trigger.o
 .debug_line    0x00001f7b      0x703 xcp.o
 .debug_line    0x0000267e      0x61c xcp_standard.o
 .debug_line    0x00002c9a      0x9cb xcp_daq.o
 .debug_line    0x00003665      0x482 xcp_calibration.o
 .debug_line    0x00003ae7      0x390 xcp_fifo.o
 .debug_line    0x00003e77      0x60c xcp_transport.o
 .debug_line    0x00004483      0x53a xcp_mem_default.o
 .debug_line    0x000049bd      0x503 xcp_drv_rtiostream.o
 .debug_line    0x00004ec0      0x55c xcp_frame_serial.o
 .debug_line    0x0000541c      0x2bc xcp_ext_param_default_serial.o
 .debug_line    0x000056d8      0x421 MW_ArduinoHWInit.o
 .debug_line    0x00005af9      0x53c io_wrappers.o
 .debug_line    0x00006035      0x7dd arduinoARM_M0plusScheduler.o
 .debug_line    0x00006812      0x2be m0m1m0plus_multitasking.o
 .debug_line    0x00006ad0      0x4ed rtiostream_serial_daemon.o
 .debug_line    0x00006fbd      0x38e sys_arch.o
 .debug_line    0x0000734b      0x573 ert_main.o

.debug_str      0x00000000     0x5c36
 .debug_str     0x00000000      0x4c2 MW_PWM.o
                                0x552 (size before relaxing)
 .debug_str     0x000004c2      0xf34 MW_PWMDriver.o
                               0x12c7 (size before relaxing)
 .debug_str     0x000013f6       0x87 ArduinoPinHandleMap.o
                                0x20a (size before relaxing)
 .debug_str     0x0000147d      0x602 xcp_ext_work.o
                                0x801 (size before relaxing)
 .debug_str     0x00001a7f      0x366 physicalmotortest.o
                                0x648 (size before relaxing)
 .debug_str     0x00001de5       0x3e physicalmotortest_data.o
                                0x244 (size before relaxing)
 .debug_str     0x00001e23      0x216 xcp_ext_common.o
                                0x750 (size before relaxing)
 .debug_str     0x00002039      0x486 xcp_ext_classic_trigger.o
                                0x818 (size before relaxing)
 .debug_str     0x000024bf      0xd11 xcp.o
                               0x1100 (size before relaxing)
 .debug_str     0x000031d0      0x465 xcp_standard.o
                                0xcb1 (size before relaxing)
 .debug_str     0x00003635      0x75c xcp_daq.o
                               0x1100 (size before relaxing)
 .debug_str     0x00003d91      0x158 xcp_calibration.o
                                0x7fc (size before relaxing)
 .debug_str     0x00003ee9       0xd5 xcp_fifo.o
                                0x2ba (size before relaxing)
 .debug_str     0x00003fbe      0x217 xcp_transport.o
                                0x7bb (size before relaxing)
 .debug_str     0x000041d5      0x1bf xcp_mem_default.o
                                0x5b1 (size before relaxing)
 .debug_str     0x00004394      0x201 xcp_drv_rtiostream.o
                                0x534 (size before relaxing)
 .debug_str     0x00004595      0x169 xcp_frame_serial.o
                                0x68e (size before relaxing)
 .debug_str     0x000046fe       0x60 xcp_ext_param_default_serial.o
                                0x290 (size before relaxing)
 .debug_str     0x0000475e       0xeb MW_ArduinoHWInit.o
                                0x337 (size before relaxing)
 .debug_str     0x00004849      0x7ce io_wrappers.o
                                0xab2 (size before relaxing)
 .debug_str     0x00005017      0x94f arduinoARM_M0plusScheduler.o
                               0x11e6 (size before relaxing)
 .debug_str     0x00005966       0x9f m0m1m0plus_multitasking.o
                                0x27b (size before relaxing)
 .debug_str     0x00005a05      0x104 rtiostream_serial_daemon.o
                                0x442 (size before relaxing)
 .debug_str     0x00005b09       0xa5 sys_arch.o
                                0x2a1 (size before relaxing)
 .debug_str     0x00005bae       0x88 ert_main.o
                                0x569 (size before relaxing)

.debug_frame    0x00000000     0x18c8
 .debug_frame   0x00000000       0xf4 MW_PWM.o
 .debug_frame   0x000000f4       0x50 MW_PWMDriver.o
 .debug_frame   0x00000144      0x134 xcp_ext_work.o
 .debug_frame   0x00000278       0x68 physicalmotortest.o
 .debug_frame   0x000002e0       0xcc xcp_ext_common.o
 .debug_frame   0x000003ac       0x54 xcp_ext_classic_trigger.o
 .debug_frame   0x00000400      0x200 xcp.o
 .debug_frame   0x00000600      0x1d0 xcp_standard.o
 .debug_frame   0x000007d0      0x2bc xcp_daq.o
 .debug_frame   0x00000a8c       0xc0 xcp_calibration.o
 .debug_frame   0x00000b4c       0x70 xcp_fifo.o
 .debug_frame   0x00000bbc      0x1b8 xcp_transport.o
 .debug_frame   0x00000d74      0x104 xcp_mem_default.o
 .debug_frame   0x00000e78       0x94 xcp_drv_rtiostream.o
 .debug_frame   0x00000f0c      0x128 xcp_frame_serial.o
 .debug_frame   0x00001034       0x40 xcp_ext_param_default_serial.o
 .debug_frame   0x00001074       0x50 MW_ArduinoHWInit.o
 .debug_frame   0x000010c4       0xc4 io_wrappers.o
 .debug_frame   0x00001188       0xdc arduinoARM_M0plusScheduler.o
 .debug_frame   0x00001264       0x30 m0m1m0plus_multitasking.o
 .debug_frame   0x00001294       0x90 rtiostream_serial_daemon.o
 .debug_frame   0x00001324       0x30 sys_arch.o
 .debug_frame   0x00001354       0x4c ert_main.o
 .debug_frame   0x000013a0       0x38 c:/programdata/matlab/supportpackages/r2020b/3p.instrset/arduinoide.instrset/tools/arm-none-eabi-gcc/4.8.3-2014q1/bin/../lib/gcc/arm-none-eabi/4.8.3/../../../../arm-none-eabi/lib/armv6-m\libm.a(lib_a-w_fmod.o)
 .debug_frame   0x000013d8       0x3c c:/programdata/matlab/supportpackages/r2020b/3p.instrset/arduinoide.instrset/tools/arm-none-eabi-gcc/4.8.3-2014q1/bin/../lib/gcc/arm-none-eabi/4.8.3/../../../../arm-none-eabi/lib/armv6-m\libm.a(lib_a-e_fmod.o)
 .debug_frame   0x00001414       0x2c c:/programdata/matlab/supportpackages/r2020b/3p.instrset/arduinoide.instrset/tools/arm-none-eabi-gcc/4.8.3-2014q1/bin/../lib/gcc/arm-none-eabi/4.8.3/../../../../arm-none-eabi/lib/armv6-m\libm.a(lib_a-s_fpclassify.o)
 .debug_frame   0x00001440       0x20 c:/programdata/matlab/supportpackages/r2020b/3p.instrset/arduinoide.instrset/tools/arm-none-eabi-gcc/4.8.3-2014q1/bin/../lib/gcc/arm-none-eabi/4.8.3/../../../../arm-none-eabi/lib/armv6-m\libm.a(lib_a-s_matherr.o)
 .debug_frame   0x00001460       0x20 c:/programdata/matlab/supportpackages/r2020b/3p.instrset/arduinoide.instrset/tools/arm-none-eabi-gcc/4.8.3-2014q1/bin/../lib/gcc/arm-none-eabi/4.8.3/armv6-m\libgcc.a(_udivsi3.o)
 .debug_frame   0x00001480       0x2c c:/programdata/matlab/supportpackages/r2020b/3p.instrset/arduinoide.instrset/tools/arm-none-eabi-gcc/4.8.3-2014q1/bin/../lib/gcc/arm-none-eabi/4.8.3/armv6-m\libgcc.a(_fixunsdfsi.o)
 .debug_frame   0x000014ac       0x3c c:/programdata/matlab/supportpackages/r2020b/3p.instrset/arduinoide.instrset/tools/arm-none-eabi-gcc/4.8.3-2014q1/bin/../lib/gcc/arm-none-eabi/4.8.3/armv6-m\libgcc.a(adddf3.o)
 .debug_frame   0x000014e8       0x3c c:/programdata/matlab/supportpackages/r2020b/3p.instrset/arduinoide.instrset/tools/arm-none-eabi-gcc/4.8.3-2014q1/bin/../lib/gcc/arm-none-eabi/4.8.3/armv6-m\libgcc.a(divdf3.o)
 .debug_frame   0x00001524       0x3c c:/programdata/matlab/supportpackages/r2020b/3p.instrset/arduinoide.instrset/tools/arm-none-eabi-gcc/4.8.3-2014q1/bin/../lib/gcc/arm-none-eabi/4.8.3/armv6-m\libgcc.a(eqdf2.o)
 .debug_frame   0x00001560       0x38 c:/programdata/matlab/supportpackages/r2020b/3p.instrset/arduinoide.instrset/tools/arm-none-eabi-gcc/4.8.3-2014q1/bin/../lib/gcc/arm-none-eabi/4.8.3/armv6-m\libgcc.a(gedf2.o)
 .debug_frame   0x00001598       0x3c c:/programdata/matlab/supportpackages/r2020b/3p.instrset/arduinoide.instrset/tools/arm-none-eabi-gcc/4.8.3-2014q1/bin/../lib/gcc/arm-none-eabi/4.8.3/armv6-m\libgcc.a(ledf2.o)
 .debug_frame   0x000015d4       0x3c c:/programdata/matlab/supportpackages/r2020b/3p.instrset/arduinoide.instrset/tools/arm-none-eabi-gcc/4.8.3-2014q1/bin/../lib/gcc/arm-none-eabi/4.8.3/armv6-m\libgcc.a(muldf3.o)
 .debug_frame   0x00001610       0x3c c:/programdata/matlab/supportpackages/r2020b/3p.instrset/arduinoide.instrset/tools/arm-none-eabi-gcc/4.8.3-2014q1/bin/../lib/gcc/arm-none-eabi/4.8.3/armv6-m\libgcc.a(subdf3.o)
 .debug_frame   0x0000164c       0x2c c:/programdata/matlab/supportpackages/r2020b/3p.instrset/arduinoide.instrset/tools/arm-none-eabi-gcc/4.8.3-2014q1/bin/../lib/gcc/arm-none-eabi/4.8.3/armv6-m\libgcc.a(fixdfsi.o)
 .debug_frame   0x00001678       0x28 c:/programdata/matlab/supportpackages/r2020b/3p.instrset/arduinoide.instrset/tools/arm-none-eabi-gcc/4.8.3-2014q1/bin/../lib/gcc/arm-none-eabi/4.8.3/armv6-m\libgcc.a(floatunsidf.o)
 .debug_frame   0x000016a0       0x20 c:/programdata/matlab/supportpackages/r2020b/3p.instrset/arduinoide.instrset/tools/arm-none-eabi-gcc/4.8.3-2014q1/bin/../lib/gcc/arm-none-eabi/4.8.3/../../../../arm-none-eabi/lib/armv6-m\libg_s.a(lib_a-errno.o)
 .debug_frame   0x000016c0       0x28 c:/programdata/matlab/supportpackages/r2020b/3p.instrset/arduinoide.instrset/tools/arm-none-eabi-gcc/4.8.3-2014q1/bin/../lib/gcc/arm-none-eabi/4.8.3/../../../../arm-none-eabi/lib/armv6-m\libg_s.a(lib_a-exit.o)
 .debug_frame   0x000016e8       0x2c c:/programdata/matlab/supportpackages/r2020b/3p.instrset/arduinoide.instrset/tools/arm-none-eabi-gcc/4.8.3-2014q1/bin/../lib/gcc/arm-none-eabi/4.8.3/../../../../arm-none-eabi/lib/armv6-m\libg_s.a(lib_a-init.o)
 .debug_frame   0x00001714       0x40 c:/programdata/matlab/supportpackages/r2020b/3p.instrset/arduinoide.instrset/tools/arm-none-eabi-gcc/4.8.3-2014q1/bin/../lib/gcc/arm-none-eabi/4.8.3/../../../../arm-none-eabi/lib/armv6-m\libg_s.a(lib_a-malloc.o)
 .debug_frame   0x00001754       0x28 c:/programdata/matlab/supportpackages/r2020b/3p.instrset/arduinoide.instrset/tools/arm-none-eabi-gcc/4.8.3-2014q1/bin/../lib/gcc/arm-none-eabi/4.8.3/../../../../arm-none-eabi/lib/armv6-m\libg_s.a(lib_a-memcpy-stub.o)
 .debug_frame   0x0000177c       0x20 c:/programdata/matlab/supportpackages/r2020b/3p.instrset/arduinoide.instrset/tools/arm-none-eabi-gcc/4.8.3-2014q1/bin/../lib/gcc/arm-none-eabi/4.8.3/../../../../arm-none-eabi/lib/armv6-m\libg_s.a(lib_a-memset.o)
 .debug_frame   0x0000179c       0x2c c:/programdata/matlab/supportpackages/r2020b/3p.instrset/arduinoide.instrset/tools/arm-none-eabi-gcc/4.8.3-2014q1/bin/../lib/gcc/arm-none-eabi/4.8.3/../../../../arm-none-eabi/lib/armv6-m\libg_s.a(lib_a-nano-freer.o)
 .debug_frame   0x000017c8       0x2c c:/programdata/matlab/supportpackages/r2020b/3p.instrset/arduinoide.instrset/tools/arm-none-eabi-gcc/4.8.3-2014q1/bin/../lib/gcc/arm-none-eabi/4.8.3/../../../../arm-none-eabi/lib/armv6-m\libg_s.a(lib_a-nano-mallocr.o)
 .debug_frame   0x000017f4       0x2c c:/programdata/matlab/supportpackages/r2020b/3p.instrset/arduinoide.instrset/tools/arm-none-eabi-gcc/4.8.3-2014q1/bin/../lib/gcc/arm-none-eabi/4.8.3/../../../../arm-none-eabi/lib/armv6-m\libg_s.a(lib_a-sbrkr.o)
 .debug_frame   0x00001820       0x20 c:/programdata/matlab/supportpackages/r2020b/3p.instrset/arduinoide.instrset/tools/arm-none-eabi-gcc/4.8.3-2014q1/bin/../lib/gcc/arm-none-eabi/4.8.3/../../../../arm-none-eabi/lib/armv6-m\libg_s.a(lib_a-strlen.o)
 .debug_frame   0x00001840       0x48 c:/programdata/matlab/supportpackages/r2020b/3p.instrset/arduinoide.instrset/tools/arm-none-eabi-gcc/4.8.3-2014q1/bin/../lib/gcc/arm-none-eabi/4.8.3/../../../../arm-none-eabi/lib/armv6-m\libg_s.a(lib_a-reent.o)
 .debug_frame   0x00001888       0x20 c:/programdata/matlab/supportpackages/r2020b/3p.instrset/arduinoide.instrset/tools/arm-none-eabi-gcc/4.8.3-2014q1/bin/../lib/gcc/arm-none-eabi/4.8.3/../../../../arm-none-eabi/lib/armv6-m\libnosys.a(sbrk.o)
 .debug_frame   0x000018a8       0x20 c:/programdata/matlab/supportpackages/r2020b/3p.instrset/arduinoide.instrset/tools/arm-none-eabi-gcc/4.8.3-2014q1/bin/../lib/gcc/arm-none-eabi/4.8.3/../../../../arm-none-eabi/lib/armv6-m\libnosys.a(_exit.o)

Cross Reference Table

Symbol                                            File
AC_Handler                                        C:/Users/Ege/DOCUME~1/MATLAB/R2020b/ARDUIN~1/ARDUIN~1/FASTER~2\libcore.a(cortex_handlers.o)
ADC_Handler                                       C:/Users/Ege/DOCUME~1/MATLAB/R2020b/ARDUIN~1/ARDUIN~1/FASTER~2\libcore.a(cortex_handlers.o)
DAC_Handler                                       C:/Users/Ege/DOCUME~1/MATLAB/R2020b/ARDUIN~1/ARDUIN~1/FASTER~2\libcore.a(cortex_handlers.o)
DMAC_Handler                                      C:/Users/Ege/DOCUME~1/MATLAB/R2020b/ARDUIN~1/ARDUIN~1/FASTER~2\libcore.a(cortex_handlers.o)
DoubleBufferedEPOutHandler::_available() const    C:/Users/Ege/DOCUME~1/MATLAB/R2020b/ARDUIN~1/ARDUIN~1/FASTER~2\libcore.a(USBCore.o)
DoubleBufferedEPOutHandler::_recv()               C:/Users/Ege/DOCUME~1/MATLAB/R2020b/ARDUIN~1/ARDUIN~1/FASTER~2\libcore.a(USBCore.o)
DoubleBufferedEPOutHandler::available()           C:/Users/Ege/DOCUME~1/MATLAB/R2020b/ARDUIN~1/ARDUIN~1/FASTER~2\libcore.a(USBCore.o)
DoubleBufferedEPOutHandler::handleEndpoint()      C:/Users/Ege/DOCUME~1/MATLAB/R2020b/ARDUIN~1/ARDUIN~1/FASTER~2\libcore.a(USBCore.o)
DoubleBufferedEPOutHandler::peek()                C:/Users/Ege/DOCUME~1/MATLAB/R2020b/ARDUIN~1/ARDUIN~1/FASTER~2\libcore.a(USBCore.o)
DoubleBufferedEPOutHandler::recv(void*, unsigned long) C:/Users/Ege/DOCUME~1/MATLAB/R2020b/ARDUIN~1/ARDUIN~1/FASTER~2\libcore.a(USBCore.o)
DoubleBufferedEPOutHandler::release()             C:/Users/Ege/DOCUME~1/MATLAB/R2020b/ARDUIN~1/ARDUIN~1/FASTER~2\libcore.a(USBCore.o)
DoubleBufferedEPOutHandler::~DoubleBufferedEPOutHandler() C:/Users/Ege/DOCUME~1/MATLAB/R2020b/ARDUIN~1/ARDUIN~1/FASTER~2\libcore.a(USBCore.o)
DoubleBufferedEPOutHandler::~DoubleBufferedEPOutHandler() C:/Users/Ege/DOCUME~1/MATLAB/R2020b/ARDUIN~1/ARDUIN~1/FASTER~2\libcore.a(USBCore.o)
DoubleBufferedEPOutHandler::~DoubleBufferedEPOutHandler() C:/Users/Ege/DOCUME~1/MATLAB/R2020b/ARDUIN~1/ARDUIN~1/FASTER~2\libcore.a(USBCore.o)
Dummy_Handler                                     C:/Users/Ege/DOCUME~1/MATLAB/R2020b/ARDUIN~1/ARDUIN~1/FASTER~2\libcore.a(cortex_handlers.o)
EIC_Handler                                       C:/Users/Ege/DOCUME~1/MATLAB/R2020b/ARDUIN~1/ARDUIN~1/FASTER~2\libcore.a(cortex_handlers.o)
EVSYS_Handler                                     C:/Users/Ege/DOCUME~1/MATLAB/R2020b/ARDUIN~1/ARDUIN~1/FASTER~2\libcore.a(cortex_handlers.o)
EndPoints                                         C:/Users/Ege/DOCUME~1/MATLAB/R2020b/ARDUIN~1/ARDUIN~1/FASTER~2\libcore.a(USBCore.o)
                                                  C:/Users/Ege/DOCUME~1/MATLAB/R2020b/ARDUIN~1/ARDUIN~1/FASTER~2\libcore.a(PluggableUSB.o)
HardFault_Handler                                 C:/Users/Ege/DOCUME~1/MATLAB/R2020b/ARDUIN~1/ARDUIN~1/FASTER~2\libcore.a(cortex_handlers.o)
I2S_Handler                                       C:/Users/Ege/DOCUME~1/MATLAB/R2020b/ARDUIN~1/ARDUIN~1/FASTER~2\libcore.a(cortex_handlers.o)
IsrOverrun                                        ert_main.o
MW_Arduino_Init                                   MW_ArduinoHWInit.o
                                                  ert_main.o
MW_Arduino_Loop                                   arduinoARM_M0plusScheduler.o
                                                  ert_main.o
MW_Arduino_Terminate                              MW_ArduinoHWInit.o
                                                  ert_main.o
MW_Modbus_Slave_Poll                              MW_ArduinoHWInit.o
MW_PWM_Close                                      MW_PWM.o
                                                  physicalmotortest.o
MW_PWM_DisableNotification                        MW_PWM.o
MW_PWM_EnableNotification                         MW_PWM.o
MW_PWM_GetHandle                                  MW_PWM.o
                                                  physicalmotortest.o
MW_PWM_GetOutputState                             MW_PWM.o
MW_PWM_Open                                       MW_PWM.o
                                                  physicalmotortest.o
MW_PWM_SetDutyCycle                               MW_PWM.o
                                                  physicalmotortest.o
MW_PWM_SetFrequency                               MW_PWM.o
MW_PWM_SetOutputToIdle                            MW_PWM.o
MW_PWM_Start                                      MW_PWM.o
                                                  physicalmotortest.o
MW_PWM_Stop                                       MW_PWM.o
MW_analogWrite                                    MW_PWMDriver.o
                                                  MW_PWM.o
MW_delay_in_microseconds                          io_wrappers.o
MW_delay_in_milliseconds                          io_wrappers.o
MW_pinModeAnalogInput                             io_wrappers.o
MW_setAnalogFrequency                             MW_PWMDriver.o
                                                  MW_PWM.o
MW_usbattach                                      io_wrappers.o
                                                  ert_main.o
NMI_Handler                                       C:/Users/Ege/DOCUME~1/MATLAB/R2020b/ARDUIN~1/ARDUIN~1/FASTER~2\libcore.a(cortex_handlers.o)
NVMCTRL_Handler                                   C:/Users/Ege/DOCUME~1/MATLAB/R2020b/ARDUIN~1/ARDUIN~1/FASTER~2\libcore.a(cortex_handlers.o)
PINCOUNT_fn                                       C:/Users/Ege/DOCUME~1/MATLAB/R2020b/ARDUIN~1/ARDUIN~1/FASTER~2\libcore.a(variant.o)
PM_Handler                                        C:/Users/Ege/DOCUME~1/MATLAB/R2020b/ARDUIN~1/ARDUIN~1/FASTER~2\libcore.a(cortex_handlers.o)
PTC_Handler                                       C:/Users/Ege/DOCUME~1/MATLAB/R2020b/ARDUIN~1/ARDUIN~1/FASTER~2\libcore.a(cortex_handlers.o)
PWMPinHandleMap                                   ArduinoPinHandleMap.o
                                                  MW_PWM.o
PendSV_Handler                                    C:/Users/Ege/DOCUME~1/MATLAB/R2020b/ARDUIN~1/ARDUIN~1/FASTER~2\libcore.a(cortex_handlers.o)
PluggableUSB()                                    C:/Users/Ege/DOCUME~1/MATLAB/R2020b/ARDUIN~1/ARDUIN~1/FASTER~2\libcore.a(PluggableUSB.o)
                                                  C:/Users/Ege/DOCUME~1/MATLAB/R2020b/ARDUIN~1/ARDUIN~1/FASTER~2\libcore.a(USBCore.o)
                                                  C:/Users/Ege/DOCUME~1/MATLAB/R2020b/ARDUIN~1/ARDUIN~1/FASTER~2\libcore.a(CDC.o)
PluggableUSBModule::getShortName(char*)           C:/Users/Ege/DOCUME~1/MATLAB/R2020b/ARDUIN~1/ARDUIN~1/FASTER~2\libcore.a(CDC.o)
PluggableUSBModule::handleEndpoint(int)           C:/Users/Ege/DOCUME~1/MATLAB/R2020b/ARDUIN~1/ARDUIN~1/FASTER~2\libcore.a(CDC.o)
PluggableUSB_::PluggableUSB_()                    C:/Users/Ege/DOCUME~1/MATLAB/R2020b/ARDUIN~1/ARDUIN~1/FASTER~2\libcore.a(PluggableUSB.o)
PluggableUSB_::PluggableUSB_()                    C:/Users/Ege/DOCUME~1/MATLAB/R2020b/ARDUIN~1/ARDUIN~1/FASTER~2\libcore.a(PluggableUSB.o)
PluggableUSB_::getDescriptor(USBSetup&)           C:/Users/Ege/DOCUME~1/MATLAB/R2020b/ARDUIN~1/ARDUIN~1/FASTER~2\libcore.a(PluggableUSB.o)
                                                  C:/Users/Ege/DOCUME~1/MATLAB/R2020b/ARDUIN~1/ARDUIN~1/FASTER~2\libcore.a(USBCore.o)
PluggableUSB_::getInterface(unsigned char*)       C:/Users/Ege/DOCUME~1/MATLAB/R2020b/ARDUIN~1/ARDUIN~1/FASTER~2\libcore.a(PluggableUSB.o)
                                                  C:/Users/Ege/DOCUME~1/MATLAB/R2020b/ARDUIN~1/ARDUIN~1/FASTER~2\libcore.a(USBCore.o)
PluggableUSB_::getShortName(char*)                C:/Users/Ege/DOCUME~1/MATLAB/R2020b/ARDUIN~1/ARDUIN~1/FASTER~2\libcore.a(PluggableUSB.o)
                                                  C:/Users/Ege/DOCUME~1/MATLAB/R2020b/ARDUIN~1/ARDUIN~1/FASTER~2\libcore.a(USBCore.o)
PluggableUSB_::handleEndpoint(int)                C:/Users/Ege/DOCUME~1/MATLAB/R2020b/ARDUIN~1/ARDUIN~1/FASTER~2\libcore.a(PluggableUSB.o)
                                                  C:/Users/Ege/DOCUME~1/MATLAB/R2020b/ARDUIN~1/ARDUIN~1/FASTER~2\libcore.a(USBCore.o)
PluggableUSB_::plug(PluggableUSBModule*)          C:/Users/Ege/DOCUME~1/MATLAB/R2020b/ARDUIN~1/ARDUIN~1/FASTER~2\libcore.a(PluggableUSB.o)
                                                  C:/Users/Ege/DOCUME~1/MATLAB/R2020b/ARDUIN~1/ARDUIN~1/FASTER~2\libcore.a(CDC.o)
PluggableUSB_::setup(USBSetup&)                   C:/Users/Ege/DOCUME~1/MATLAB/R2020b/ARDUIN~1/ARDUIN~1/FASTER~2\libcore.a(PluggableUSB.o)
                                                  C:/Users/Ege/DOCUME~1/MATLAB/R2020b/ARDUIN~1/ARDUIN~1/FASTER~2\libcore.a(USBCore.o)
Print::availableForWrite()                        C:/Users/Ege/DOCUME~1/MATLAB/R2020b/ARDUIN~1/ARDUIN~1/FASTER~2\libcore.a(Uart.o)
                                                  C:/Users/Ege/DOCUME~1/MATLAB/R2020b/ARDUIN~1/ARDUIN~1/FASTER~2\libcore.a(Print.o)
                                                  C:/Users/Ege/DOCUME~1/MATLAB/R2020b/ARDUIN~1/ARDUIN~1/FASTER~2\libcore.a(CDC.o)
Print::flush()                                    C:/Users/Ege/DOCUME~1/MATLAB/R2020b/ARDUIN~1/ARDUIN~1/FASTER~2\libcore.a(Uart.o)
                                                  C:/Users/Ege/DOCUME~1/MATLAB/R2020b/ARDUIN~1/ARDUIN~1/FASTER~2\libcore.a(Print.o)
                                                  C:/Users/Ege/DOCUME~1/MATLAB/R2020b/ARDUIN~1/ARDUIN~1/FASTER~2\libcore.a(CDC.o)
Print::print(Printable const&)                    C:/Users/Ege/DOCUME~1/MATLAB/R2020b/ARDUIN~1/ARDUIN~1/FASTER~2\libcore.a(Print.o)
Print::print(String const&)                       C:/Users/Ege/DOCUME~1/MATLAB/R2020b/ARDUIN~1/ARDUIN~1/FASTER~2\libcore.a(Print.o)
Print::print(__FlashStringHelper const*)          C:/Users/Ege/DOCUME~1/MATLAB/R2020b/ARDUIN~1/ARDUIN~1/FASTER~2\libcore.a(Print.o)
Print::print(char const*)                         C:/Users/Ege/DOCUME~1/MATLAB/R2020b/ARDUIN~1/ARDUIN~1/FASTER~2\libcore.a(Print.o)
Print::print(char)                                C:/Users/Ege/DOCUME~1/MATLAB/R2020b/ARDUIN~1/ARDUIN~1/FASTER~2\libcore.a(Print.o)
Print::print(double, int)                         C:/Users/Ege/DOCUME~1/MATLAB/R2020b/ARDUIN~1/ARDUIN~1/FASTER~2\libcore.a(Print.o)
Print::print(int, int)                            C:/Users/Ege/DOCUME~1/MATLAB/R2020b/ARDUIN~1/ARDUIN~1/FASTER~2\libcore.a(Print.o)
Print::print(long, int)                           C:/Users/Ege/DOCUME~1/MATLAB/R2020b/ARDUIN~1/ARDUIN~1/FASTER~2\libcore.a(Print.o)
Print::print(unsigned char, int)                  C:/Users/Ege/DOCUME~1/MATLAB/R2020b/ARDUIN~1/ARDUIN~1/FASTER~2\libcore.a(Print.o)
Print::print(unsigned int, int)                   C:/Users/Ege/DOCUME~1/MATLAB/R2020b/ARDUIN~1/ARDUIN~1/FASTER~2\libcore.a(Print.o)
Print::print(unsigned long, int)                  C:/Users/Ege/DOCUME~1/MATLAB/R2020b/ARDUIN~1/ARDUIN~1/FASTER~2\libcore.a(Print.o)
Print::printFloat(double, unsigned char)          C:/Users/Ege/DOCUME~1/MATLAB/R2020b/ARDUIN~1/ARDUIN~1/FASTER~2\libcore.a(Print.o)
Print::printNumber(unsigned long, unsigned char)  C:/Users/Ege/DOCUME~1/MATLAB/R2020b/ARDUIN~1/ARDUIN~1/FASTER~2\libcore.a(Print.o)
Print::println()                                  C:/Users/Ege/DOCUME~1/MATLAB/R2020b/ARDUIN~1/ARDUIN~1/FASTER~2\libcore.a(Print.o)
Print::println(Printable const&)                  C:/Users/Ege/DOCUME~1/MATLAB/R2020b/ARDUIN~1/ARDUIN~1/FASTER~2\libcore.a(Print.o)
Print::println(String const&)                     C:/Users/Ege/DOCUME~1/MATLAB/R2020b/ARDUIN~1/ARDUIN~1/FASTER~2\libcore.a(Print.o)
Print::println(__FlashStringHelper const*)        C:/Users/Ege/DOCUME~1/MATLAB/R2020b/ARDUIN~1/ARDUIN~1/FASTER~2\libcore.a(Print.o)
Print::println(char const*)                       C:/Users/Ege/DOCUME~1/MATLAB/R2020b/ARDUIN~1/ARDUIN~1/FASTER~2\libcore.a(Print.o)
Print::println(char)                              C:/Users/Ege/DOCUME~1/MATLAB/R2020b/ARDUIN~1/ARDUIN~1/FASTER~2\libcore.a(Print.o)
Print::println(double, int)                       C:/Users/Ege/DOCUME~1/MATLAB/R2020b/ARDUIN~1/ARDUIN~1/FASTER~2\libcore.a(Print.o)
Print::println(int, int)                          C:/Users/Ege/DOCUME~1/MATLAB/R2020b/ARDUIN~1/ARDUIN~1/FASTER~2\libcore.a(Print.o)
Print::println(long, int)                         C:/Users/Ege/DOCUME~1/MATLAB/R2020b/ARDUIN~1/ARDUIN~1/FASTER~2\libcore.a(Print.o)
Print::println(unsigned char, int)                C:/Users/Ege/DOCUME~1/MATLAB/R2020b/ARDUIN~1/ARDUIN~1/FASTER~2\libcore.a(Print.o)
Print::println(unsigned int, int)                 C:/Users/Ege/DOCUME~1/MATLAB/R2020b/ARDUIN~1/ARDUIN~1/FASTER~2\libcore.a(Print.o)
Print::println(unsigned long, int)                C:/Users/Ege/DOCUME~1/MATLAB/R2020b/ARDUIN~1/ARDUIN~1/FASTER~2\libcore.a(Print.o)
Print::write(char const*)                         C:/Users/Ege/DOCUME~1/MATLAB/R2020b/ARDUIN~1/ARDUIN~1/FASTER~2\libcore.a(Print.o)
Print::write(unsigned char const*, unsigned int)  C:/Users/Ege/DOCUME~1/MATLAB/R2020b/ARDUIN~1/ARDUIN~1/FASTER~2\libcore.a(Print.o)
                                                  C:/Users/Ege/DOCUME~1/MATLAB/R2020b/ARDUIN~1/ARDUIN~1/FASTER~2\libcore.a(CDC.o)
                                                  C:/Users/Ege/DOCUME~1/MATLAB/R2020b/ARDUIN~1/ARDUIN~1/FASTER~2\libcore.a(Uart.o)
RTC_Handler                                       arduinoARM_M0plusScheduler.o
Reset_Handler                                     C:/Users/Ege/DOCUME~1/MATLAB/R2020b/ARDUIN~1/ARDUIN~1/FASTER~2\libcore.a(cortex_handlers.o)
RingBufferN<256>::available()                     C:/Users/Ege/DOCUME~1/MATLAB/R2020b/ARDUIN~1/ARDUIN~1/FASTER~2\libcore.a(Uart.o)
RingBufferN<256>::availableForStore()             C:/Users/Ege/DOCUME~1/MATLAB/R2020b/ARDUIN~1/ARDUIN~1/FASTER~2\libcore.a(Uart.o)
SERCOM0_Handler                                   C:/Users/Ege/DOCUME~1/MATLAB/R2020b/ARDUIN~1/ARDUIN~1/FASTER~2\libcore.a(cortex_handlers.o)
SERCOM1_Handler                                   C:/Users/Ege/DOCUME~1/MATLAB/R2020b/ARDUIN~1/ARDUIN~1/FASTER~2\libcore.a(cortex_handlers.o)
SERCOM2_Handler                                   C:/Users/Ege/DOCUME~1/MATLAB/R2020b/ARDUIN~1/ARDUIN~1/FASTER~2\libcore.a(variant.o)
                                                  C:/Users/Ege/DOCUME~1/MATLAB/R2020b/ARDUIN~1/ARDUIN~1/FASTER~2\libcore.a(cortex_handlers.o)
SERCOM3_Handler                                   C:/Users/Ege/DOCUME~1/MATLAB/R2020b/ARDUIN~1/ARDUIN~1/FASTER~2\libcore.a(variant.o)
                                                  C:/Users/Ege/DOCUME~1/MATLAB/R2020b/ARDUIN~1/ARDUIN~1/FASTER~2\libcore.a(cortex_handlers.o)
SERCOM4_Handler                                   C:/Users/Ege/DOCUME~1/MATLAB/R2020b/ARDUIN~1/ARDUIN~1/FASTER~2\libcore.a(cortex_handlers.o)
SERCOM5_Handler                                   C:/Users/Ege/DOCUME~1/MATLAB/R2020b/ARDUIN~1/ARDUIN~1/FASTER~2\libcore.a(variant.o)
                                                  C:/Users/Ege/DOCUME~1/MATLAB/R2020b/ARDUIN~1/ARDUIN~1/FASTER~2\libcore.a(cortex_handlers.o)
SERCOM::SERCOM(Sercom*)                           C:/Users/Ege/DOCUME~1/MATLAB/R2020b/ARDUIN~1/ARDUIN~1/FASTER~2\libcore.a(SERCOM.o)
SERCOM::SERCOM(Sercom*)                           C:/Users/Ege/DOCUME~1/MATLAB/R2020b/ARDUIN~1/ARDUIN~1/FASTER~2\libcore.a(SERCOM.o)
                                                  C:/Users/Ege/DOCUME~1/MATLAB/R2020b/ARDUIN~1/ARDUIN~1/FASTER~2\libcore.a(variant.o)
SERCOM::acknowledgeUARTError()                    C:/Users/Ege/DOCUME~1/MATLAB/R2020b/ARDUIN~1/ARDUIN~1/FASTER~2\libcore.a(SERCOM.o)
                                                  C:/Users/Ege/DOCUME~1/MATLAB/R2020b/ARDUIN~1/ARDUIN~1/FASTER~2\libcore.a(Uart.o)
SERCOM::availableDataUART()                       C:/Users/Ege/DOCUME~1/MATLAB/R2020b/ARDUIN~1/ARDUIN~1/FASTER~2\libcore.a(SERCOM.o)
                                                  C:/Users/Ege/DOCUME~1/MATLAB/R2020b/ARDUIN~1/ARDUIN~1/FASTER~2\libcore.a(Uart.o)
SERCOM::availableWIRE()                           C:/Users/Ege/DOCUME~1/MATLAB/R2020b/ARDUIN~1/ARDUIN~1/FASTER~2\libcore.a(SERCOM.o)
SERCOM::calculateBaudrateSynchronous(unsigned long) C:/Users/Ege/DOCUME~1/MATLAB/R2020b/ARDUIN~1/ARDUIN~1/FASTER~2\libcore.a(SERCOM.o)
SERCOM::clearFrameErrorUART()                     C:/Users/Ege/DOCUME~1/MATLAB/R2020b/ARDUIN~1/ARDUIN~1/FASTER~2\libcore.a(SERCOM.o)
                                                  C:/Users/Ege/DOCUME~1/MATLAB/R2020b/ARDUIN~1/ARDUIN~1/FASTER~2\libcore.a(Uart.o)
SERCOM::clearStatusUART()                         C:/Users/Ege/DOCUME~1/MATLAB/R2020b/ARDUIN~1/ARDUIN~1/FASTER~2\libcore.a(SERCOM.o)
                                                  C:/Users/Ege/DOCUME~1/MATLAB/R2020b/ARDUIN~1/ARDUIN~1/FASTER~2\libcore.a(Uart.o)
SERCOM::disableDataRegisterEmptyInterruptUART()   C:/Users/Ege/DOCUME~1/MATLAB/R2020b/ARDUIN~1/ARDUIN~1/FASTER~2\libcore.a(SERCOM.o)
                                                  C:/Users/Ege/DOCUME~1/MATLAB/R2020b/ARDUIN~1/ARDUIN~1/FASTER~2\libcore.a(Uart.o)
SERCOM::disableSPI()                              C:/Users/Ege/DOCUME~1/MATLAB/R2020b/ARDUIN~1/ARDUIN~1/FASTER~2\libcore.a(SERCOM.o)
SERCOM::disableWIRE()                             C:/Users/Ege/DOCUME~1/MATLAB/R2020b/ARDUIN~1/ARDUIN~1/FASTER~2\libcore.a(SERCOM.o)
SERCOM::enableDataRegisterEmptyInterruptUART()    C:/Users/Ege/DOCUME~1/MATLAB/R2020b/ARDUIN~1/ARDUIN~1/FASTER~2\libcore.a(SERCOM.o)
                                                  C:/Users/Ege/DOCUME~1/MATLAB/R2020b/ARDUIN~1/ARDUIN~1/FASTER~2\libcore.a(Uart.o)
SERCOM::enableSPI()                               C:/Users/Ege/DOCUME~1/MATLAB/R2020b/ARDUIN~1/ARDUIN~1/FASTER~2\libcore.a(SERCOM.o)
SERCOM::enableUART()                              C:/Users/Ege/DOCUME~1/MATLAB/R2020b/ARDUIN~1/ARDUIN~1/FASTER~2\libcore.a(SERCOM.o)
                                                  C:/Users/Ege/DOCUME~1/MATLAB/R2020b/ARDUIN~1/ARDUIN~1/FASTER~2\libcore.a(Uart.o)
SERCOM::enableWIRE()                              C:/Users/Ege/DOCUME~1/MATLAB/R2020b/ARDUIN~1/ARDUIN~1/FASTER~2\libcore.a(SERCOM.o)
SERCOM::flushUART()                               C:/Users/Ege/DOCUME~1/MATLAB/R2020b/ARDUIN~1/ARDUIN~1/FASTER~2\libcore.a(SERCOM.o)
                                                  C:/Users/Ege/DOCUME~1/MATLAB/R2020b/ARDUIN~1/ARDUIN~1/FASTER~2\libcore.a(Uart.o)
SERCOM::getDataOrderSPI()                         C:/Users/Ege/DOCUME~1/MATLAB/R2020b/ARDUIN~1/ARDUIN~1/FASTER~2\libcore.a(SERCOM.o)
SERCOM::initClockNVIC()                           C:/Users/Ege/DOCUME~1/MATLAB/R2020b/ARDUIN~1/ARDUIN~1/FASTER~2\libcore.a(SERCOM.o)
SERCOM::initFrame(SercomUartCharSize, SercomDataOrder, SercomParityMode, SercomNumberStopBit) C:/Users/Ege/DOCUME~1/MATLAB/R2020b/ARDUIN~1/ARDUIN~1/FASTER~2\libcore.a(SERCOM.o)
                                                  C:/Users/Ege/DOCUME~1/MATLAB/R2020b/ARDUIN~1/ARDUIN~1/FASTER~2\libcore.a(Uart.o)
SERCOM::initMasterWIRE(unsigned long)             C:/Users/Ege/DOCUME~1/MATLAB/R2020b/ARDUIN~1/ARDUIN~1/FASTER~2\libcore.a(SERCOM.o)
SERCOM::initPads(SercomUartTXPad, SercomRXPad)    C:/Users/Ege/DOCUME~1/MATLAB/R2020b/ARDUIN~1/ARDUIN~1/FASTER~2\libcore.a(SERCOM.o)
                                                  C:/Users/Ege/DOCUME~1/MATLAB/R2020b/ARDUIN~1/ARDUIN~1/FASTER~2\libcore.a(Uart.o)
SERCOM::initSPI(SercomSpiTXPad, SercomRXPad, SercomSpiCharSize, SercomDataOrder) C:/Users/Ege/DOCUME~1/MATLAB/R2020b/ARDUIN~1/ARDUIN~1/FASTER~2\libcore.a(SERCOM.o)
SERCOM::initSPIClock(SercomSpiClockMode, unsigned long) C:/Users/Ege/DOCUME~1/MATLAB/R2020b/ARDUIN~1/ARDUIN~1/FASTER~2\libcore.a(SERCOM.o)
SERCOM::initSlaveWIRE(unsigned char, bool)        C:/Users/Ege/DOCUME~1/MATLAB/R2020b/ARDUIN~1/ARDUIN~1/FASTER~2\libcore.a(SERCOM.o)
SERCOM::initUART(SercomUartMode, SercomUartSampleRate, unsigned long) C:/Users/Ege/DOCUME~1/MATLAB/R2020b/ARDUIN~1/ARDUIN~1/FASTER~2\libcore.a(SERCOM.o)
                                                  C:/Users/Ege/DOCUME~1/MATLAB/R2020b/ARDUIN~1/ARDUIN~1/FASTER~2\libcore.a(Uart.o)
SERCOM::isAddressMatch()                          C:/Users/Ege/DOCUME~1/MATLAB/R2020b/ARDUIN~1/ARDUIN~1/FASTER~2\libcore.a(SERCOM.o)
SERCOM::isArbLostWIRE()                           C:/Users/Ege/DOCUME~1/MATLAB/R2020b/ARDUIN~1/ARDUIN~1/FASTER~2\libcore.a(SERCOM.o)
SERCOM::isBufferOverflowErrorSPI()                C:/Users/Ege/DOCUME~1/MATLAB/R2020b/ARDUIN~1/ARDUIN~1/FASTER~2\libcore.a(SERCOM.o)
SERCOM::isBufferOverflowErrorUART()               C:/Users/Ege/DOCUME~1/MATLAB/R2020b/ARDUIN~1/ARDUIN~1/FASTER~2\libcore.a(SERCOM.o)
SERCOM::isBusBusyWIRE()                           C:/Users/Ege/DOCUME~1/MATLAB/R2020b/ARDUIN~1/ARDUIN~1/FASTER~2\libcore.a(SERCOM.o)
SERCOM::isBusIdleWIRE()                           C:/Users/Ege/DOCUME~1/MATLAB/R2020b/ARDUIN~1/ARDUIN~1/FASTER~2\libcore.a(SERCOM.o)
SERCOM::isBusOwnerWIRE()                          C:/Users/Ege/DOCUME~1/MATLAB/R2020b/ARDUIN~1/ARDUIN~1/FASTER~2\libcore.a(SERCOM.o)
SERCOM::isDataReadyWIRE()                         C:/Users/Ege/DOCUME~1/MATLAB/R2020b/ARDUIN~1/ARDUIN~1/FASTER~2\libcore.a(SERCOM.o)
SERCOM::isDataRegisterEmptySPI()                  C:/Users/Ege/DOCUME~1/MATLAB/R2020b/ARDUIN~1/ARDUIN~1/FASTER~2\libcore.a(SERCOM.o)
SERCOM::isDataRegisterEmptyUART()                 C:/Users/Ege/DOCUME~1/MATLAB/R2020b/ARDUIN~1/ARDUIN~1/FASTER~2\libcore.a(SERCOM.o)
                                                  C:/Users/Ege/DOCUME~1/MATLAB/R2020b/ARDUIN~1/ARDUIN~1/FASTER~2\libcore.a(Uart.o)
SERCOM::isFrameErrorUART()                        C:/Users/Ege/DOCUME~1/MATLAB/R2020b/ARDUIN~1/ARDUIN~1/FASTER~2\libcore.a(SERCOM.o)
                                                  C:/Users/Ege/DOCUME~1/MATLAB/R2020b/ARDUIN~1/ARDUIN~1/FASTER~2\libcore.a(Uart.o)
SERCOM::isMasterReadOperationWIRE()               C:/Users/Ege/DOCUME~1/MATLAB/R2020b/ARDUIN~1/ARDUIN~1/FASTER~2\libcore.a(SERCOM.o)
SERCOM::isMasterWIRE()                            C:/Users/Ege/DOCUME~1/MATLAB/R2020b/ARDUIN~1/ARDUIN~1/FASTER~2\libcore.a(SERCOM.o)
SERCOM::isParityErrorUART()                       C:/Users/Ege/DOCUME~1/MATLAB/R2020b/ARDUIN~1/ARDUIN~1/FASTER~2\libcore.a(SERCOM.o)
SERCOM::isRXNackReceivedWIRE()                    C:/Users/Ege/DOCUME~1/MATLAB/R2020b/ARDUIN~1/ARDUIN~1/FASTER~2\libcore.a(SERCOM.o)
SERCOM::isRestartDetectedWIRE()                   C:/Users/Ege/DOCUME~1/MATLAB/R2020b/ARDUIN~1/ARDUIN~1/FASTER~2\libcore.a(SERCOM.o)
SERCOM::isSlaveWIRE()                             C:/Users/Ege/DOCUME~1/MATLAB/R2020b/ARDUIN~1/ARDUIN~1/FASTER~2\libcore.a(SERCOM.o)
SERCOM::isStopDetectedWIRE()                      C:/Users/Ege/DOCUME~1/MATLAB/R2020b/ARDUIN~1/ARDUIN~1/FASTER~2\libcore.a(SERCOM.o)
SERCOM::isUARTError()                             C:/Users/Ege/DOCUME~1/MATLAB/R2020b/ARDUIN~1/ARDUIN~1/FASTER~2\libcore.a(SERCOM.o)
                                                  C:/Users/Ege/DOCUME~1/MATLAB/R2020b/ARDUIN~1/ARDUIN~1/FASTER~2\libcore.a(Uart.o)
SERCOM::prepareAckBitWIRE()                       C:/Users/Ege/DOCUME~1/MATLAB/R2020b/ARDUIN~1/ARDUIN~1/FASTER~2\libcore.a(SERCOM.o)
SERCOM::prepareCommandBitsWire(unsigned char)     C:/Users/Ege/DOCUME~1/MATLAB/R2020b/ARDUIN~1/ARDUIN~1/FASTER~2\libcore.a(SERCOM.o)
SERCOM::prepareNackBitWIRE()                      C:/Users/Ege/DOCUME~1/MATLAB/R2020b/ARDUIN~1/ARDUIN~1/FASTER~2\libcore.a(SERCOM.o)
SERCOM::readDataUART()                            C:/Users/Ege/DOCUME~1/MATLAB/R2020b/ARDUIN~1/ARDUIN~1/FASTER~2\libcore.a(SERCOM.o)
                                                  C:/Users/Ege/DOCUME~1/MATLAB/R2020b/ARDUIN~1/ARDUIN~1/FASTER~2\libcore.a(Uart.o)
SERCOM::readDataWIRE()                            C:/Users/Ege/DOCUME~1/MATLAB/R2020b/ARDUIN~1/ARDUIN~1/FASTER~2\libcore.a(SERCOM.o)
SERCOM::resetSPI()                                C:/Users/Ege/DOCUME~1/MATLAB/R2020b/ARDUIN~1/ARDUIN~1/FASTER~2\libcore.a(SERCOM.o)
SERCOM::resetUART()                               C:/Users/Ege/DOCUME~1/MATLAB/R2020b/ARDUIN~1/ARDUIN~1/FASTER~2\libcore.a(SERCOM.o)
                                                  C:/Users/Ege/DOCUME~1/MATLAB/R2020b/ARDUIN~1/ARDUIN~1/FASTER~2\libcore.a(Uart.o)
SERCOM::resetWIRE()                               C:/Users/Ege/DOCUME~1/MATLAB/R2020b/ARDUIN~1/ARDUIN~1/FASTER~2\libcore.a(SERCOM.o)
SERCOM::sendDataMasterWIRE(unsigned char)         C:/Users/Ege/DOCUME~1/MATLAB/R2020b/ARDUIN~1/ARDUIN~1/FASTER~2\libcore.a(SERCOM.o)
SERCOM::sendDataSlaveWIRE(unsigned char)          C:/Users/Ege/DOCUME~1/MATLAB/R2020b/ARDUIN~1/ARDUIN~1/FASTER~2\libcore.a(SERCOM.o)
SERCOM::setBaudrateSPI(unsigned char)             C:/Users/Ege/DOCUME~1/MATLAB/R2020b/ARDUIN~1/ARDUIN~1/FASTER~2\libcore.a(SERCOM.o)
SERCOM::setClockModeSPI(SercomSpiClockMode)       C:/Users/Ege/DOCUME~1/MATLAB/R2020b/ARDUIN~1/ARDUIN~1/FASTER~2\libcore.a(SERCOM.o)
SERCOM::setDataOrderSPI(SercomDataOrder)          C:/Users/Ege/DOCUME~1/MATLAB/R2020b/ARDUIN~1/ARDUIN~1/FASTER~2\libcore.a(SERCOM.o)
SERCOM::startTransmissionWIRE(unsigned char, SercomWireReadWriteFlag) C:/Users/Ege/DOCUME~1/MATLAB/R2020b/ARDUIN~1/ARDUIN~1/FASTER~2\libcore.a(SERCOM.o)
SERCOM::transferDataSPI(unsigned char)            C:/Users/Ege/DOCUME~1/MATLAB/R2020b/ARDUIN~1/ARDUIN~1/FASTER~2\libcore.a(SERCOM.o)
SERCOM::writeDataUART(unsigned char)              C:/Users/Ege/DOCUME~1/MATLAB/R2020b/ARDUIN~1/ARDUIN~1/FASTER~2\libcore.a(SERCOM.o)
                                                  C:/Users/Ege/DOCUME~1/MATLAB/R2020b/ARDUIN~1/ARDUIN~1/FASTER~2\libcore.a(Uart.o)
SVC_Handler                                       m0m1m0plus_multitasking.o
SYSCTRL_Handler                                   C:/Users/Ege/DOCUME~1/MATLAB/R2020b/ARDUIN~1/ARDUIN~1/FASTER~2\libcore.a(cortex_handlers.o)
Serial1                                           C:/Users/Ege/DOCUME~1/MATLAB/R2020b/ARDUIN~1/ARDUIN~1/FASTER~2\libcore.a(variant.o)
                                                  io_wrappers.o
Serial2                                           C:/Users/Ege/DOCUME~1/MATLAB/R2020b/ARDUIN~1/ARDUIN~1/FASTER~2\libcore.a(variant.o)
SerialHCI                                         C:/Users/Ege/DOCUME~1/MATLAB/R2020b/ARDUIN~1/ARDUIN~1/FASTER~2\libcore.a(variant.o)
SerialUSB                                         C:/Users/Ege/DOCUME~1/MATLAB/R2020b/ARDUIN~1/ARDUIN~1/FASTER~2\libcore.a(CDC.o)
                                                  C:/Users/Ege/DOCUME~1/MATLAB/R2020b/ARDUIN~1/ARDUIN~1/FASTER~2\libcore.a(USBCore.o)
                                                  rtiostream_serial_daemon.o
                                                  io_wrappers.o
Serial_::Serial_(USBDeviceClass&)                 C:/Users/Ege/DOCUME~1/MATLAB/R2020b/ARDUIN~1/ARDUIN~1/FASTER~2\libcore.a(CDC.o)
Serial_::Serial_(USBDeviceClass&)                 C:/Users/Ege/DOCUME~1/MATLAB/R2020b/ARDUIN~1/ARDUIN~1/FASTER~2\libcore.a(CDC.o)
Serial_::available()                              C:/Users/Ege/DOCUME~1/MATLAB/R2020b/ARDUIN~1/ARDUIN~1/FASTER~2\libcore.a(CDC.o)
                                                  rtiostream_serial_daemon.o
Serial_::availableForWrite()                      C:/Users/Ege/DOCUME~1/MATLAB/R2020b/ARDUIN~1/ARDUIN~1/FASTER~2\libcore.a(CDC.o)
Serial_::baud()                                   C:/Users/Ege/DOCUME~1/MATLAB/R2020b/ARDUIN~1/ARDUIN~1/FASTER~2\libcore.a(CDC.o)
Serial_::begin(unsigned long)                     C:/Users/Ege/DOCUME~1/MATLAB/R2020b/ARDUIN~1/ARDUIN~1/FASTER~2\libcore.a(CDC.o)
                                                  C:/Users/Ege/DOCUME~1/MATLAB/R2020b/ARDUIN~1/ARDUIN~1/FASTER~2\libcore.a(USBCore.o)
                                                  rtiostream_serial_daemon.o
                                                  io_wrappers.o
Serial_::begin(unsigned long, unsigned char)      C:/Users/Ege/DOCUME~1/MATLAB/R2020b/ARDUIN~1/ARDUIN~1/FASTER~2\libcore.a(CDC.o)
Serial_::clear()                                  C:/Users/Ege/DOCUME~1/MATLAB/R2020b/ARDUIN~1/ARDUIN~1/FASTER~2\libcore.a(CDC.o)
Serial_::dtr()                                    C:/Users/Ege/DOCUME~1/MATLAB/R2020b/ARDUIN~1/ARDUIN~1/FASTER~2\libcore.a(CDC.o)
Serial_::enableInterrupt()                        C:/Users/Ege/DOCUME~1/MATLAB/R2020b/ARDUIN~1/ARDUIN~1/FASTER~2\libcore.a(CDC.o)
                                                  C:/Users/Ege/DOCUME~1/MATLAB/R2020b/ARDUIN~1/ARDUIN~1/FASTER~2\libcore.a(USBCore.o)
Serial_::end()                                    C:/Users/Ege/DOCUME~1/MATLAB/R2020b/ARDUIN~1/ARDUIN~1/FASTER~2\libcore.a(CDC.o)
Serial_::flush()                                  C:/Users/Ege/DOCUME~1/MATLAB/R2020b/ARDUIN~1/ARDUIN~1/FASTER~2\libcore.a(CDC.o)
Serial_::getDescriptor(USBSetup&)                 C:/Users/Ege/DOCUME~1/MATLAB/R2020b/ARDUIN~1/ARDUIN~1/FASTER~2\libcore.a(CDC.o)
Serial_::getInterface(unsigned char*)             C:/Users/Ege/DOCUME~1/MATLAB/R2020b/ARDUIN~1/ARDUIN~1/FASTER~2\libcore.a(CDC.o)
Serial_::getShortName(char*)                      C:/Users/Ege/DOCUME~1/MATLAB/R2020b/ARDUIN~1/ARDUIN~1/FASTER~2\libcore.a(CDC.o)
Serial_::handleEndpoint(int)                      C:/Users/Ege/DOCUME~1/MATLAB/R2020b/ARDUIN~1/ARDUIN~1/FASTER~2\libcore.a(CDC.o)
Serial_::numbits()                                C:/Users/Ege/DOCUME~1/MATLAB/R2020b/ARDUIN~1/ARDUIN~1/FASTER~2\libcore.a(CDC.o)
Serial_::operator bool()                          C:/Users/Ege/DOCUME~1/MATLAB/R2020b/ARDUIN~1/ARDUIN~1/FASTER~2\libcore.a(CDC.o)
Serial_::paritytype()                             C:/Users/Ege/DOCUME~1/MATLAB/R2020b/ARDUIN~1/ARDUIN~1/FASTER~2\libcore.a(CDC.o)
Serial_::peek()                                   C:/Users/Ege/DOCUME~1/MATLAB/R2020b/ARDUIN~1/ARDUIN~1/FASTER~2\libcore.a(CDC.o)
Serial_::read()                                   C:/Users/Ege/DOCUME~1/MATLAB/R2020b/ARDUIN~1/ARDUIN~1/FASTER~2\libcore.a(CDC.o)
                                                  rtiostream_serial_daemon.o
                                                  io_wrappers.o
Serial_::readBreak()                              C:/Users/Ege/DOCUME~1/MATLAB/R2020b/ARDUIN~1/ARDUIN~1/FASTER~2\libcore.a(CDC.o)
Serial_::readBytes(char*, unsigned int)           C:/Users/Ege/DOCUME~1/MATLAB/R2020b/ARDUIN~1/ARDUIN~1/FASTER~2\libcore.a(CDC.o)
Serial_::rts()                                    C:/Users/Ege/DOCUME~1/MATLAB/R2020b/ARDUIN~1/ARDUIN~1/FASTER~2\libcore.a(CDC.o)
Serial_::setup(USBSetup&)                         C:/Users/Ege/DOCUME~1/MATLAB/R2020b/ARDUIN~1/ARDUIN~1/FASTER~2\libcore.a(CDC.o)
Serial_::stopbits()                               C:/Users/Ege/DOCUME~1/MATLAB/R2020b/ARDUIN~1/ARDUIN~1/FASTER~2\libcore.a(CDC.o)
Serial_::write(unsigned char const*, unsigned int) C:/Users/Ege/DOCUME~1/MATLAB/R2020b/ARDUIN~1/ARDUIN~1/FASTER~2\libcore.a(CDC.o)
                                                  rtiostream_serial_daemon.o
                                                  io_wrappers.o
Serial_::write(unsigned char)                     C:/Users/Ege/DOCUME~1/MATLAB/R2020b/ARDUIN~1/ARDUIN~1/FASTER~2\libcore.a(CDC.o)
Serial_begin                                      io_wrappers.o
                                                  MW_ArduinoHWInit.o
Serial_read                                       io_wrappers.o
Serial_write                                      io_wrappers.o
Setup_SchedulerRTC                                arduinoARM_M0plusScheduler.o
Setup_SchedulerTimer                              arduinoARM_M0plusScheduler.o
SysTick_DefaultHandler                            C:/Users/Ege/DOCUME~1/MATLAB/R2020b/ARDUIN~1/ARDUIN~1/FASTER~2\libcore.a(delay.o)
                                                  C:/Users/Ege/DOCUME~1/MATLAB/R2020b/ARDUIN~1/ARDUIN~1/FASTER~2\libcore.a(cortex_handlers.o)
SysTick_Handler                                   C:/Users/Ege/DOCUME~1/MATLAB/R2020b/ARDUIN~1/ARDUIN~1/FASTER~2\libcore.a(cortex_handlers.o)
SystemCoreClock                                   C:/Users/Ege/DOCUME~1/MATLAB/R2020b/ARDUIN~1/ARDUIN~1/FASTER~2\libcore.a(wiring.o)
                                                  C:/Users/Ege/DOCUME~1/MATLAB/R2020b/ARDUIN~1/ARDUIN~1/FASTER~2\libcore.a(SERCOM.o)
                                                  C:/Users/Ege/DOCUME~1/MATLAB/R2020b/ARDUIN~1/ARDUIN~1/FASTER~2\libcore.a(USBCore.o)
                                                  C:/Users/Ege/DOCUME~1/MATLAB/R2020b/ARDUIN~1/ARDUIN~1/FASTER~2\libcore.a(startup.o)
SystemInit                                        C:/Users/Ege/DOCUME~1/MATLAB/R2020b/ARDUIN~1/ARDUIN~1/FASTER~2\libcore.a(startup.o)
                                                  C:/Users/Ege/DOCUME~1/MATLAB/R2020b/ARDUIN~1/ARDUIN~1/FASTER~2\libcore.a(cortex_handlers.o)
TC3_Handler                                       C:/Users/Ege/DOCUME~1/MATLAB/R2020b/ARDUIN~1/ARDUIN~1/FASTER~2\libcore.a(cortex_handlers.o)
TC4_Handler                                       C:/Users/Ege/DOCUME~1/MATLAB/R2020b/ARDUIN~1/ARDUIN~1/FASTER~2\libcore.a(cortex_handlers.o)
TC5_Handler                                       C:/Users/Ege/DOCUME~1/MATLAB/R2020b/ARDUIN~1/ARDUIN~1/FASTER~2\libcore.a(cortex_handlers.o)
TC6_Handler                                       C:/Users/Ege/DOCUME~1/MATLAB/R2020b/ARDUIN~1/ARDUIN~1/FASTER~2\libcore.a(cortex_handlers.o)
TC7_Handler                                       C:/Users/Ege/DOCUME~1/MATLAB/R2020b/ARDUIN~1/ARDUIN~1/FASTER~2\libcore.a(cortex_handlers.o)
TCC0_Handler                                      C:/Users/Ege/DOCUME~1/MATLAB/R2020b/ARDUIN~1/ARDUIN~1/FASTER~2\libcore.a(cortex_handlers.o)
TCC1_Handler                                      C:/Users/Ege/DOCUME~1/MATLAB/R2020b/ARDUIN~1/ARDUIN~1/FASTER~2\libcore.a(cortex_handlers.o)
TCC2_Handler                                      C:/Users/Ege/DOCUME~1/MATLAB/R2020b/ARDUIN~1/ARDUIN~1/FASTER~2\libcore.a(cortex_handlers.o)
UDD_Handler                                       C:/Users/Ege/DOCUME~1/MATLAB/R2020b/ARDUIN~1/ARDUIN~1/FASTER~2\libcore.a(USBCore.o)
USBDevice                                         C:/Users/Ege/DOCUME~1/MATLAB/R2020b/ARDUIN~1/ARDUIN~1/FASTER~2\libcore.a(USBCore.o)
                                                  C:/Users/Ege/DOCUME~1/MATLAB/R2020b/ARDUIN~1/ARDUIN~1/FASTER~2\libcore.a(CDC.o)
                                                  io_wrappers.o
USBDeviceClass::ISRHandler()                      C:/Users/Ege/DOCUME~1/MATLAB/R2020b/ARDUIN~1/ARDUIN~1/FASTER~2\libcore.a(USBCore.o)
USBDeviceClass::SendInterfaces(unsigned long*)    C:/Users/Ege/DOCUME~1/MATLAB/R2020b/ARDUIN~1/ARDUIN~1/FASTER~2\libcore.a(USBCore.o)
USBDeviceClass::armRecvCtrlOUT(unsigned long)     C:/Users/Ege/DOCUME~1/MATLAB/R2020b/ARDUIN~1/ARDUIN~1/FASTER~2\libcore.a(USBCore.o)
USBDeviceClass::armSend(unsigned long, void const*, unsigned long) C:/Users/Ege/DOCUME~1/MATLAB/R2020b/ARDUIN~1/ARDUIN~1/FASTER~2\libcore.a(USBCore.o)
USBDeviceClass::attach()                          C:/Users/Ege/DOCUME~1/MATLAB/R2020b/ARDUIN~1/ARDUIN~1/FASTER~2\libcore.a(USBCore.o)
                                                  io_wrappers.o
USBDeviceClass::available(unsigned long)          C:/Users/Ege/DOCUME~1/MATLAB/R2020b/ARDUIN~1/ARDUIN~1/FASTER~2\libcore.a(USBCore.o)
                                                  C:/Users/Ege/DOCUME~1/MATLAB/R2020b/ARDUIN~1/ARDUIN~1/FASTER~2\libcore.a(CDC.o)
USBDeviceClass::clear(unsigned long)              C:/Users/Ege/DOCUME~1/MATLAB/R2020b/ARDUIN~1/ARDUIN~1/FASTER~2\libcore.a(USBCore.o)
                                                  C:/Users/Ege/DOCUME~1/MATLAB/R2020b/ARDUIN~1/ARDUIN~1/FASTER~2\libcore.a(CDC.o)
USBDeviceClass::configured()                      C:/Users/Ege/DOCUME~1/MATLAB/R2020b/ARDUIN~1/ARDUIN~1/FASTER~2\libcore.a(USBCore.o)
USBDeviceClass::connected()                       C:/Users/Ege/DOCUME~1/MATLAB/R2020b/ARDUIN~1/ARDUIN~1/FASTER~2\libcore.a(USBCore.o)
USBDeviceClass::detach()                          C:/Users/Ege/DOCUME~1/MATLAB/R2020b/ARDUIN~1/ARDUIN~1/FASTER~2\libcore.a(USBCore.o)
USBDeviceClass::end()                             C:/Users/Ege/DOCUME~1/MATLAB/R2020b/ARDUIN~1/ARDUIN~1/FASTER~2\libcore.a(USBCore.o)
USBDeviceClass::flush(unsigned long)              C:/Users/Ege/DOCUME~1/MATLAB/R2020b/ARDUIN~1/ARDUIN~1/FASTER~2\libcore.a(USBCore.o)
                                                  C:/Users/Ege/DOCUME~1/MATLAB/R2020b/ARDUIN~1/ARDUIN~1/FASTER~2\libcore.a(CDC.o)
USBDeviceClass::handleClassInterfaceSetup(USBSetup&) C:/Users/Ege/DOCUME~1/MATLAB/R2020b/ARDUIN~1/ARDUIN~1/FASTER~2\libcore.a(USBCore.o)
USBDeviceClass::handleStandardSetup(USBSetup&)    C:/Users/Ege/DOCUME~1/MATLAB/R2020b/ARDUIN~1/ARDUIN~1/FASTER~2\libcore.a(USBCore.o)
USBDeviceClass::init()                            C:/Users/Ege/DOCUME~1/MATLAB/R2020b/ARDUIN~1/ARDUIN~1/FASTER~2\libcore.a(USBCore.o)
                                                  io_wrappers.o
USBDeviceClass::initEP(unsigned long, unsigned long) C:/Users/Ege/DOCUME~1/MATLAB/R2020b/ARDUIN~1/ARDUIN~1/FASTER~2\libcore.a(USBCore.o)
USBDeviceClass::initEndpoints()                   C:/Users/Ege/DOCUME~1/MATLAB/R2020b/ARDUIN~1/ARDUIN~1/FASTER~2\libcore.a(USBCore.o)
USBDeviceClass::packMessages(bool)                C:/Users/Ege/DOCUME~1/MATLAB/R2020b/ARDUIN~1/ARDUIN~1/FASTER~2\libcore.a(USBCore.o)
USBDeviceClass::recv(unsigned long)               C:/Users/Ege/DOCUME~1/MATLAB/R2020b/ARDUIN~1/ARDUIN~1/FASTER~2\libcore.a(USBCore.o)
                                                  C:/Users/Ege/DOCUME~1/MATLAB/R2020b/ARDUIN~1/ARDUIN~1/FASTER~2\libcore.a(CDC.o)
USBDeviceClass::recv(unsigned long, void*, unsigned long) C:/Users/Ege/DOCUME~1/MATLAB/R2020b/ARDUIN~1/ARDUIN~1/FASTER~2\libcore.a(USBCore.o)
                                                  C:/Users/Ege/DOCUME~1/MATLAB/R2020b/ARDUIN~1/ARDUIN~1/FASTER~2\libcore.a(CDC.o)
USBDeviceClass::recvControl(void*, unsigned long) C:/Users/Ege/DOCUME~1/MATLAB/R2020b/ARDUIN~1/ARDUIN~1/FASTER~2\libcore.a(USBCore.o)
                                                  C:/Users/Ege/DOCUME~1/MATLAB/R2020b/ARDUIN~1/ARDUIN~1/FASTER~2\libcore.a(CDC.o)
USBDeviceClass::send(unsigned long, void const*, unsigned long) C:/Users/Ege/DOCUME~1/MATLAB/R2020b/ARDUIN~1/ARDUIN~1/FASTER~2\libcore.a(USBCore.o)
                                                  C:/Users/Ege/DOCUME~1/MATLAB/R2020b/ARDUIN~1/ARDUIN~1/FASTER~2\libcore.a(CDC.o)
USBDeviceClass::sendConfiguration(unsigned long)  C:/Users/Ege/DOCUME~1/MATLAB/R2020b/ARDUIN~1/ARDUIN~1/FASTER~2\libcore.a(USBCore.o)
USBDeviceClass::sendControl(void const*, unsigned long) C:/Users/Ege/DOCUME~1/MATLAB/R2020b/ARDUIN~1/ARDUIN~1/FASTER~2\libcore.a(USBCore.o)
                                                  C:/Users/Ege/DOCUME~1/MATLAB/R2020b/ARDUIN~1/ARDUIN~1/FASTER~2\libcore.a(CDC.o)
USBDeviceClass::sendDescriptor(USBSetup&)         C:/Users/Ege/DOCUME~1/MATLAB/R2020b/ARDUIN~1/ARDUIN~1/FASTER~2\libcore.a(USBCore.o)
USBDeviceClass::sendStringDescriptor(unsigned char const*, unsigned long) C:/Users/Ege/DOCUME~1/MATLAB/R2020b/ARDUIN~1/ARDUIN~1/FASTER~2\libcore.a(USBCore.o)
USBDeviceClass::sendZlp(unsigned long)            C:/Users/Ege/DOCUME~1/MATLAB/R2020b/ARDUIN~1/ARDUIN~1/FASTER~2\libcore.a(USBCore.o)
                                                  C:/Users/Ege/DOCUME~1/MATLAB/R2020b/ARDUIN~1/ARDUIN~1/FASTER~2\libcore.a(CDC.o)
USBDeviceClass::setAddress(unsigned long)         C:/Users/Ege/DOCUME~1/MATLAB/R2020b/ARDUIN~1/ARDUIN~1/FASTER~2\libcore.a(USBCore.o)
USBDeviceClass::stall(unsigned long)              C:/Users/Ege/DOCUME~1/MATLAB/R2020b/ARDUIN~1/ARDUIN~1/FASTER~2\libcore.a(USBCore.o)
USBDeviceClass::standby()                         C:/Users/Ege/DOCUME~1/MATLAB/R2020b/ARDUIN~1/ARDUIN~1/FASTER~2\libcore.a(USBCore.o)
USB_Handler                                       C:/Users/Ege/DOCUME~1/MATLAB/R2020b/ARDUIN~1/ARDUIN~1/FASTER~2\libcore.a(cortex_handlers.o)
USB_SetHandler                                    C:/Users/Ege/DOCUME~1/MATLAB/R2020b/ARDUIN~1/ARDUIN~1/FASTER~2\libcore.a(cortex_handlers.o)
                                                  C:/Users/Ege/DOCUME~1/MATLAB/R2020b/ARDUIN~1/ARDUIN~1/FASTER~2\libcore.a(USBCore.o)
Uart::IrqHandler()                                C:/Users/Ege/DOCUME~1/MATLAB/R2020b/ARDUIN~1/ARDUIN~1/FASTER~2\libcore.a(Uart.o)
                                                  C:/Users/Ege/DOCUME~1/MATLAB/R2020b/ARDUIN~1/ARDUIN~1/FASTER~2\libcore.a(variant.o)
Uart::Uart(SERCOM*, unsigned char, unsigned char, SercomRXPad, SercomUartTXPad) C:/Users/Ege/DOCUME~1/MATLAB/R2020b/ARDUIN~1/ARDUIN~1/FASTER~2\libcore.a(Uart.o)
                                                  C:/Users/Ege/DOCUME~1/MATLAB/R2020b/ARDUIN~1/ARDUIN~1/FASTER~2\libcore.a(variant.o)
Uart::Uart(SERCOM*, unsigned char, unsigned char, SercomRXPad, SercomUartTXPad) C:/Users/Ege/DOCUME~1/MATLAB/R2020b/ARDUIN~1/ARDUIN~1/FASTER~2\libcore.a(Uart.o)
Uart::Uart(SERCOM*, unsigned char, unsigned char, SercomRXPad, SercomUartTXPad, unsigned char, unsigned char) C:/Users/Ege/DOCUME~1/MATLAB/R2020b/ARDUIN~1/ARDUIN~1/FASTER~2\libcore.a(Uart.o)
Uart::Uart(SERCOM*, unsigned char, unsigned char, SercomRXPad, SercomUartTXPad, unsigned char, unsigned char) C:/Users/Ege/DOCUME~1/MATLAB/R2020b/ARDUIN~1/ARDUIN~1/FASTER~2\libcore.a(Uart.o)
                                                  C:/Users/Ege/DOCUME~1/MATLAB/R2020b/ARDUIN~1/ARDUIN~1/FASTER~2\libcore.a(variant.o)
Uart::available()                                 C:/Users/Ege/DOCUME~1/MATLAB/R2020b/ARDUIN~1/ARDUIN~1/FASTER~2\libcore.a(Uart.o)
Uart::availableForWrite()                         C:/Users/Ege/DOCUME~1/MATLAB/R2020b/ARDUIN~1/ARDUIN~1/FASTER~2\libcore.a(Uart.o)
Uart::begin(unsigned long)                        C:/Users/Ege/DOCUME~1/MATLAB/R2020b/ARDUIN~1/ARDUIN~1/FASTER~2\libcore.a(Uart.o)
                                                  io_wrappers.o
Uart::begin(unsigned long, unsigned short)        C:/Users/Ege/DOCUME~1/MATLAB/R2020b/ARDUIN~1/ARDUIN~1/FASTER~2\libcore.a(Uart.o)
Uart::end()                                       C:/Users/Ege/DOCUME~1/MATLAB/R2020b/ARDUIN~1/ARDUIN~1/FASTER~2\libcore.a(Uart.o)
Uart::extractCharSize(unsigned short)             C:/Users/Ege/DOCUME~1/MATLAB/R2020b/ARDUIN~1/ARDUIN~1/FASTER~2\libcore.a(Uart.o)
Uart::extractNbStopBit(unsigned short)            C:/Users/Ege/DOCUME~1/MATLAB/R2020b/ARDUIN~1/ARDUIN~1/FASTER~2\libcore.a(Uart.o)
Uart::extractParity(unsigned short)               C:/Users/Ege/DOCUME~1/MATLAB/R2020b/ARDUIN~1/ARDUIN~1/FASTER~2\libcore.a(Uart.o)
Uart::flush()                                     C:/Users/Ege/DOCUME~1/MATLAB/R2020b/ARDUIN~1/ARDUIN~1/FASTER~2\libcore.a(Uart.o)
Uart::operator bool()                             C:/Users/Ege/DOCUME~1/MATLAB/R2020b/ARDUIN~1/ARDUIN~1/FASTER~2\libcore.a(Uart.o)
Uart::peek()                                      C:/Users/Ege/DOCUME~1/MATLAB/R2020b/ARDUIN~1/ARDUIN~1/FASTER~2\libcore.a(Uart.o)
Uart::read()                                      C:/Users/Ege/DOCUME~1/MATLAB/R2020b/ARDUIN~1/ARDUIN~1/FASTER~2\libcore.a(Uart.o)
                                                  io_wrappers.o
Uart::write(unsigned char)                        C:/Users/Ege/DOCUME~1/MATLAB/R2020b/ARDUIN~1/ARDUIN~1/FASTER~2\libcore.a(Uart.o)
WDT_Handler                                       C:/Users/Ege/DOCUME~1/MATLAB/R2020b/ARDUIN~1/ARDUIN~1/FASTER~2\libcore.a(cortex_handlers.o)
_Jv_RegisterClasses                               c:/programdata/matlab/supportpackages/r2020b/3p.instrset/arduinoide.instrset/tools/arm-none-eabi-gcc/4.8.3-2014q1/bin/../lib/gcc/arm-none-eabi/4.8.3/armv6-m/crtbegin.o
__Guard::__Guard()                                C:/Users/Ege/DOCUME~1/MATLAB/R2020b/ARDUIN~1/ARDUIN~1/FASTER~2\libcore.a(USBCore.o)
__Guard::__Guard()                                C:/Users/Ege/DOCUME~1/MATLAB/R2020b/ARDUIN~1/ARDUIN~1/FASTER~2\libcore.a(USBCore.o)
__Guard::~__Guard()                               C:/Users/Ege/DOCUME~1/MATLAB/R2020b/ARDUIN~1/ARDUIN~1/FASTER~2\libcore.a(USBCore.o)
__Guard::~__Guard()                               C:/Users/Ege/DOCUME~1/MATLAB/R2020b/ARDUIN~1/ARDUIN~1/FASTER~2\libcore.a(USBCore.o)
__StackTop                                        C:/Users/Ege/DOCUME~1/MATLAB/R2020b/ARDUIN~1/ARDUIN~1/FASTER~2\libcore.a(cortex_handlers.o)
__aeabi_cdcmpeq                                   c:/programdata/matlab/supportpackages/r2020b/3p.instrset/arduinoide.instrset/tools/arm-none-eabi-gcc/4.8.3-2014q1/bin/../lib/gcc/arm-none-eabi/4.8.3/armv6-m\libgcc.a(_arm_cmpdf2.o)
__aeabi_cdcmple                                   c:/programdata/matlab/supportpackages/r2020b/3p.instrset/arduinoide.instrset/tools/arm-none-eabi-gcc/4.8.3-2014q1/bin/../lib/gcc/arm-none-eabi/4.8.3/armv6-m\libgcc.a(_arm_cmpdf2.o)
__aeabi_cdrcmple                                  c:/programdata/matlab/supportpackages/r2020b/3p.instrset/arduinoide.instrset/tools/arm-none-eabi-gcc/4.8.3-2014q1/bin/../lib/gcc/arm-none-eabi/4.8.3/armv6-m\libgcc.a(_arm_cmpdf2.o)
__aeabi_d2iz                                      c:/programdata/matlab/supportpackages/r2020b/3p.instrset/arduinoide.instrset/tools/arm-none-eabi-gcc/4.8.3-2014q1/bin/../lib/gcc/arm-none-eabi/4.8.3/armv6-m\libgcc.a(fixdfsi.o)
                                                  c:/programdata/matlab/supportpackages/r2020b/3p.instrset/arduinoide.instrset/tools/arm-none-eabi-gcc/4.8.3-2014q1/bin/../lib/gcc/arm-none-eabi/4.8.3/armv6-m\libgcc.a(_fixunsdfsi.o)
__aeabi_d2uiz                                     c:/programdata/matlab/supportpackages/r2020b/3p.instrset/arduinoide.instrset/tools/arm-none-eabi-gcc/4.8.3-2014q1/bin/../lib/gcc/arm-none-eabi/4.8.3/armv6-m\libgcc.a(_fixunsdfsi.o)
                                                  C:/Users/Ege/DOCUME~1/MATLAB/R2020b/ARDUIN~1/ARDUIN~1/FASTER~2\libcore.a(Print.o)
                                                  xcp_ext_common.o
                                                  MW_PWM.o
__aeabi_dadd                                      c:/programdata/matlab/supportpackages/r2020b/3p.instrset/arduinoide.instrset/tools/arm-none-eabi-gcc/4.8.3-2014q1/bin/../lib/gcc/arm-none-eabi/4.8.3/armv6-m\libgcc.a(adddf3.o)
                                                  C:/Users/Ege/DOCUME~1/MATLAB/R2020b/ARDUIN~1/ARDUIN~1/FASTER~2\libcore.a(Print.o)
                                                  xcp_ext_common.o
__aeabi_dcmpeq                                    c:/programdata/matlab/supportpackages/r2020b/3p.instrset/arduinoide.instrset/tools/arm-none-eabi-gcc/4.8.3-2014q1/bin/../lib/gcc/arm-none-eabi/4.8.3/armv6-m\libgcc.a(_arm_cmpdf2.o)
                                                  c:/programdata/matlab/supportpackages/r2020b/3p.instrset/arduinoide.instrset/tools/arm-none-eabi-gcc/4.8.3-2014q1/bin/../lib/gcc/arm-none-eabi/4.8.3/../../../../arm-none-eabi/lib/armv6-m\libm.a(lib_a-w_fmod.o)
                                                  xcp_ext_classic_trigger.o
                                                  xcp_ext_common.o
                                                  physicalmotortest.o
                                                  xcp_ext_work.o
__aeabi_dcmpge                                    c:/programdata/matlab/supportpackages/r2020b/3p.instrset/arduinoide.instrset/tools/arm-none-eabi-gcc/4.8.3-2014q1/bin/../lib/gcc/arm-none-eabi/4.8.3/armv6-m\libgcc.a(_arm_cmpdf2.o)
                                                  c:/programdata/matlab/supportpackages/r2020b/3p.instrset/arduinoide.instrset/tools/arm-none-eabi-gcc/4.8.3-2014q1/bin/../lib/gcc/arm-none-eabi/4.8.3/armv6-m\libgcc.a(_fixunsdfsi.o)
                                                  xcp_ext_classic_trigger.o
__aeabi_dcmpgt                                    c:/programdata/matlab/supportpackages/r2020b/3p.instrset/arduinoide.instrset/tools/arm-none-eabi-gcc/4.8.3-2014q1/bin/../lib/gcc/arm-none-eabi/4.8.3/armv6-m\libgcc.a(_arm_cmpdf2.o)
                                                  C:/Users/Ege/DOCUME~1/MATLAB/R2020b/ARDUIN~1/ARDUIN~1/FASTER~2\libcore.a(Print.o)
                                                  xcp_ext_classic_trigger.o
                                                  xcp_ext_common.o
                                                  physicalmotortest.o
                                                  MW_PWM.o
__aeabi_dcmple                                    c:/programdata/matlab/supportpackages/r2020b/3p.instrset/arduinoide.instrset/tools/arm-none-eabi-gcc/4.8.3-2014q1/bin/../lib/gcc/arm-none-eabi/4.8.3/armv6-m\libgcc.a(_arm_cmpdf2.o)
__aeabi_dcmplt                                    c:/programdata/matlab/supportpackages/r2020b/3p.instrset/arduinoide.instrset/tools/arm-none-eabi-gcc/4.8.3-2014q1/bin/../lib/gcc/arm-none-eabi/4.8.3/armv6-m\libgcc.a(_arm_cmpdf2.o)
                                                  C:/Users/Ege/DOCUME~1/MATLAB/R2020b/ARDUIN~1/ARDUIN~1/FASTER~2\libcore.a(Print.o)
                                                  xcp_ext_classic_trigger.o
                                                  xcp_ext_common.o
                                                  physicalmotortest.o
                                                  MW_PWM.o
__aeabi_ddiv                                      c:/programdata/matlab/supportpackages/r2020b/3p.instrset/arduinoide.instrset/tools/arm-none-eabi-gcc/4.8.3-2014q1/bin/../lib/gcc/arm-none-eabi/4.8.3/armv6-m\libgcc.a(divdf3.o)
                                                  C:/Users/Ege/DOCUME~1/MATLAB/R2020b/ARDUIN~1/ARDUIN~1/FASTER~2\libcore.a(Print.o)
                                                  c:/programdata/matlab/supportpackages/r2020b/3p.instrset/arduinoide.instrset/tools/arm-none-eabi-gcc/4.8.3-2014q1/bin/../lib/gcc/arm-none-eabi/4.8.3/../../../../arm-none-eabi/lib/armv6-m\libm.a(lib_a-e_fmod.o)
                                                  c:/programdata/matlab/supportpackages/r2020b/3p.instrset/arduinoide.instrset/tools/arm-none-eabi-gcc/4.8.3-2014q1/bin/../lib/gcc/arm-none-eabi/4.8.3/../../../../arm-none-eabi/lib/armv6-m\libm.a(lib_a-w_fmod.o)
                                                  xcp_ext_common.o
__aeabi_dmul                                      c:/programdata/matlab/supportpackages/r2020b/3p.instrset/arduinoide.instrset/tools/arm-none-eabi-gcc/4.8.3-2014q1/bin/../lib/gcc/arm-none-eabi/4.8.3/armv6-m\libgcc.a(muldf3.o)
                                                  C:/Users/Ege/DOCUME~1/MATLAB/R2020b/ARDUIN~1/ARDUIN~1/FASTER~2\libcore.a(Print.o)
                                                  c:/programdata/matlab/supportpackages/r2020b/3p.instrset/arduinoide.instrset/tools/arm-none-eabi-gcc/4.8.3-2014q1/bin/../lib/gcc/arm-none-eabi/4.8.3/../../../../arm-none-eabi/lib/armv6-m\libm.a(lib_a-e_fmod.o)
                                                  xcp_ext_common.o
                                                  physicalmotortest.o
__aeabi_dsub                                      c:/programdata/matlab/supportpackages/r2020b/3p.instrset/arduinoide.instrset/tools/arm-none-eabi-gcc/4.8.3-2014q1/bin/../lib/gcc/arm-none-eabi/4.8.3/armv6-m\libgcc.a(subdf3.o)
                                                  c:/programdata/matlab/supportpackages/r2020b/3p.instrset/arduinoide.instrset/tools/arm-none-eabi-gcc/4.8.3-2014q1/bin/../lib/gcc/arm-none-eabi/4.8.3/armv6-m\libgcc.a(_fixunsdfsi.o)
                                                  C:/Users/Ege/DOCUME~1/MATLAB/R2020b/ARDUIN~1/ARDUIN~1/FASTER~2\libcore.a(Print.o)
                                                  xcp_ext_common.o
                                                  physicalmotortest.o
__aeabi_idiv                                      c:/programdata/matlab/supportpackages/r2020b/3p.instrset/arduinoide.instrset/tools/arm-none-eabi-gcc/4.8.3-2014q1/bin/../lib/gcc/arm-none-eabi/4.8.3/armv6-m\libgcc.a(_divsi3.o)
                                                  C:/Users/Ege/DOCUME~1/MATLAB/R2020b/ARDUIN~1/ARDUIN~1/FASTER~2\libcore.a(SERCOM.o)
__aeabi_idiv0                                     c:/programdata/matlab/supportpackages/r2020b/3p.instrset/arduinoide.instrset/tools/arm-none-eabi-gcc/4.8.3-2014q1/bin/../lib/gcc/arm-none-eabi/4.8.3/armv6-m\libgcc.a(_dvmd_tls.o)
                                                  c:/programdata/matlab/supportpackages/r2020b/3p.instrset/arduinoide.instrset/tools/arm-none-eabi-gcc/4.8.3-2014q1/bin/../lib/gcc/arm-none-eabi/4.8.3/armv6-m\libgcc.a(_divsi3.o)
                                                  c:/programdata/matlab/supportpackages/r2020b/3p.instrset/arduinoide.instrset/tools/arm-none-eabi-gcc/4.8.3-2014q1/bin/../lib/gcc/arm-none-eabi/4.8.3/armv6-m\libgcc.a(_udivsi3.o)
__aeabi_idivmod                                   c:/programdata/matlab/supportpackages/r2020b/3p.instrset/arduinoide.instrset/tools/arm-none-eabi-gcc/4.8.3-2014q1/bin/../lib/gcc/arm-none-eabi/4.8.3/armv6-m\libgcc.a(_divsi3.o)
__aeabi_ldiv0                                     c:/programdata/matlab/supportpackages/r2020b/3p.instrset/arduinoide.instrset/tools/arm-none-eabi-gcc/4.8.3-2014q1/bin/../lib/gcc/arm-none-eabi/4.8.3/armv6-m\libgcc.a(_dvmd_tls.o)
__aeabi_ui2d                                      c:/programdata/matlab/supportpackages/r2020b/3p.instrset/arduinoide.instrset/tools/arm-none-eabi-gcc/4.8.3-2014q1/bin/../lib/gcc/arm-none-eabi/4.8.3/armv6-m\libgcc.a(floatunsidf.o)
                                                  C:/Users/Ege/DOCUME~1/MATLAB/R2020b/ARDUIN~1/ARDUIN~1/FASTER~2\libcore.a(Print.o)
                                                  physicalmotortest.o
__aeabi_uidiv                                     c:/programdata/matlab/supportpackages/r2020b/3p.instrset/arduinoide.instrset/tools/arm-none-eabi-gcc/4.8.3-2014q1/bin/../lib/gcc/arm-none-eabi/4.8.3/armv6-m\libgcc.a(_udivsi3.o)
                                                  c:/programdata/matlab/supportpackages/r2020b/3p.instrset/arduinoide.instrset/tools/arm-none-eabi-gcc/4.8.3-2014q1/bin/../lib/gcc/arm-none-eabi/4.8.3/armv6-m\libgcc.a(divdf3.o)
                                                  C:/Users/Ege/DOCUME~1/MATLAB/R2020b/ARDUIN~1/ARDUIN~1/FASTER~2\libcore.a(SERCOM.o)
                                                  C:/Users/Ege/DOCUME~1/MATLAB/R2020b/ARDUIN~1/ARDUIN~1/FASTER~2\libcore.a(Print.o)
                                                  C:/Users/Ege/DOCUME~1/MATLAB/R2020b/ARDUIN~1/ARDUIN~1/FASTER~2\libcore.a(USBCore.o)
                                                  C:/Users/Ege/DOCUME~1/MATLAB/R2020b/ARDUIN~1/ARDUIN~1/FASTER~2\libcore.a(wiring.o)
__aeabi_uidivmod                                  c:/programdata/matlab/supportpackages/r2020b/3p.instrset/arduinoide.instrset/tools/arm-none-eabi-gcc/4.8.3-2014q1/bin/../lib/gcc/arm-none-eabi/4.8.3/armv6-m\libgcc.a(_udivsi3.o)
                                                  c:/programdata/matlab/supportpackages/r2020b/3p.instrset/arduinoide.instrset/tools/arm-none-eabi-gcc/4.8.3-2014q1/bin/../lib/gcc/arm-none-eabi/4.8.3/armv6-m\libgcc.a(divdf3.o)
                                                  C:/Users/Ege/DOCUME~1/MATLAB/R2020b/ARDUIN~1/ARDUIN~1/FASTER~2\libcore.a(Print.o)
__bss_end__                                       C:/Users/Ege/DOCUME~1/MATLAB/R2020b/ARDUIN~1/ARDUIN~1/FASTER~2\libcore.a(cortex_handlers.o)
                                                  c:/programdata/matlab/supportpackages/r2020b/3p.instrset/arduinoide.instrset/tools/arm-none-eabi-gcc/4.8.3-2014q1/bin/../lib/gcc/arm-none-eabi/4.8.3/../../../../arm-none-eabi/lib/armv6-m/crt0.o
__bss_start__                                     C:/Users/Ege/DOCUME~1/MATLAB/R2020b/ARDUIN~1/ARDUIN~1/FASTER~2\libcore.a(cortex_handlers.o)
                                                  c:/programdata/matlab/supportpackages/r2020b/3p.instrset/arduinoide.instrset/tools/arm-none-eabi-gcc/4.8.3-2014q1/bin/../lib/gcc/arm-none-eabi/4.8.3/../../../../arm-none-eabi/lib/armv6-m/crt0.o
__call_exitprocs                                  c:/programdata/matlab/supportpackages/r2020b/3p.instrset/arduinoide.instrset/tools/arm-none-eabi-gcc/4.8.3-2014q1/bin/../lib/gcc/arm-none-eabi/4.8.3/../../../../arm-none-eabi/lib/armv6-m\libg_s.a(lib_a-exit.o)
__clzsi2                                          c:/programdata/matlab/supportpackages/r2020b/3p.instrset/arduinoide.instrset/tools/arm-none-eabi-gcc/4.8.3-2014q1/bin/../lib/gcc/arm-none-eabi/4.8.3/armv6-m\libgcc.a(_clzsi2.o)
                                                  c:/programdata/matlab/supportpackages/r2020b/3p.instrset/arduinoide.instrset/tools/arm-none-eabi-gcc/4.8.3-2014q1/bin/../lib/gcc/arm-none-eabi/4.8.3/armv6-m\libgcc.a(floatunsidf.o)
                                                  c:/programdata/matlab/supportpackages/r2020b/3p.instrset/arduinoide.instrset/tools/arm-none-eabi-gcc/4.8.3-2014q1/bin/../lib/gcc/arm-none-eabi/4.8.3/armv6-m\libgcc.a(subdf3.o)
                                                  c:/programdata/matlab/supportpackages/r2020b/3p.instrset/arduinoide.instrset/tools/arm-none-eabi-gcc/4.8.3-2014q1/bin/../lib/gcc/arm-none-eabi/4.8.3/armv6-m\libgcc.a(muldf3.o)
                                                  c:/programdata/matlab/supportpackages/r2020b/3p.instrset/arduinoide.instrset/tools/arm-none-eabi-gcc/4.8.3-2014q1/bin/../lib/gcc/arm-none-eabi/4.8.3/armv6-m\libgcc.a(divdf3.o)
                                                  c:/programdata/matlab/supportpackages/r2020b/3p.instrset/arduinoide.instrset/tools/arm-none-eabi-gcc/4.8.3-2014q1/bin/../lib/gcc/arm-none-eabi/4.8.3/armv6-m\libgcc.a(adddf3.o)
__cxa_deleted_virtual                             C:/Users/Ege/DOCUME~1/MATLAB/R2020b/ARDUIN~1/ARDUIN~1/FASTER~2\libcore.a(abi.o)
__cxa_pure_virtual                                C:/Users/Ege/DOCUME~1/MATLAB/R2020b/ARDUIN~1/ARDUIN~1/FASTER~2\libcore.a(abi.o)
                                                  C:/Users/Ege/DOCUME~1/MATLAB/R2020b/ARDUIN~1/ARDUIN~1/FASTER~2\libcore.a(Print.o)
                                                  C:/Users/Ege/DOCUME~1/MATLAB/R2020b/ARDUIN~1/ARDUIN~1/FASTER~2\libcore.a(USBCore.o)
                                                  C:/Users/Ege/DOCUME~1/MATLAB/R2020b/ARDUIN~1/ARDUIN~1/FASTER~2\libcore.a(CDC.o)
                                                  C:/Users/Ege/DOCUME~1/MATLAB/R2020b/ARDUIN~1/ARDUIN~1/FASTER~2\libcore.a(Uart.o)
__data_end__                                      C:/Users/Ege/DOCUME~1/MATLAB/R2020b/ARDUIN~1/ARDUIN~1/FASTER~2\libcore.a(cortex_handlers.o)
__data_start__                                    C:/Users/Ege/DOCUME~1/MATLAB/R2020b/ARDUIN~1/ARDUIN~1/FASTER~2\libcore.a(cortex_handlers.o)
__deregister_frame_info                           c:/programdata/matlab/supportpackages/r2020b/3p.instrset/arduinoide.instrset/tools/arm-none-eabi-gcc/4.8.3-2014q1/bin/../lib/gcc/arm-none-eabi/4.8.3/armv6-m/crtbegin.o
__divsi3                                          c:/programdata/matlab/supportpackages/r2020b/3p.instrset/arduinoide.instrset/tools/arm-none-eabi-gcc/4.8.3-2014q1/bin/../lib/gcc/arm-none-eabi/4.8.3/armv6-m\libgcc.a(_divsi3.o)
__dso_handle                                      c:/programdata/matlab/supportpackages/r2020b/3p.instrset/arduinoide.instrset/tools/arm-none-eabi-gcc/4.8.3-2014q1/bin/../lib/gcc/arm-none-eabi/4.8.3/armv6-m/crtbegin.o
__eqdf2                                           c:/programdata/matlab/supportpackages/r2020b/3p.instrset/arduinoide.instrset/tools/arm-none-eabi-gcc/4.8.3-2014q1/bin/../lib/gcc/arm-none-eabi/4.8.3/armv6-m\libgcc.a(eqdf2.o)
                                                  c:/programdata/matlab/supportpackages/r2020b/3p.instrset/arduinoide.instrset/tools/arm-none-eabi-gcc/4.8.3-2014q1/bin/../lib/gcc/arm-none-eabi/4.8.3/armv6-m\libgcc.a(_arm_cmpdf2.o)
__errno                                           c:/programdata/matlab/supportpackages/r2020b/3p.instrset/arduinoide.instrset/tools/arm-none-eabi-gcc/4.8.3-2014q1/bin/../lib/gcc/arm-none-eabi/4.8.3/../../../../arm-none-eabi/lib/armv6-m\libg_s.a(lib_a-errno.o)
                                                  c:/programdata/matlab/supportpackages/r2020b/3p.instrset/arduinoide.instrset/tools/arm-none-eabi-gcc/4.8.3-2014q1/bin/../lib/gcc/arm-none-eabi/4.8.3/../../../../arm-none-eabi/lib/armv6-m\libm.a(lib_a-w_fmod.o)
__etext                                           C:/Users/Ege/DOCUME~1/MATLAB/R2020b/ARDUIN~1/ARDUIN~1/FASTER~2\libcore.a(cortex_handlers.o)
__fdlib_version                                   c:/programdata/matlab/supportpackages/r2020b/3p.instrset/arduinoide.instrset/tools/arm-none-eabi-gcc/4.8.3-2014q1/bin/../lib/gcc/arm-none-eabi/4.8.3/../../../../arm-none-eabi/lib/armv6-m\libm.a(lib_a-s_lib_ver.o)
                                                  c:/programdata/matlab/supportpackages/r2020b/3p.instrset/arduinoide.instrset/tools/arm-none-eabi-gcc/4.8.3-2014q1/bin/../lib/gcc/arm-none-eabi/4.8.3/../../../../arm-none-eabi/lib/armv6-m\libm.a(lib_a-w_fmod.o)
__fixunsdfsi                                      c:/programdata/matlab/supportpackages/r2020b/3p.instrset/arduinoide.instrset/tools/arm-none-eabi-gcc/4.8.3-2014q1/bin/../lib/gcc/arm-none-eabi/4.8.3/armv6-m\libgcc.a(_fixunsdfsi.o)
__fpclassifyd                                     c:/programdata/matlab/supportpackages/r2020b/3p.instrset/arduinoide.instrset/tools/arm-none-eabi-gcc/4.8.3-2014q1/bin/../lib/gcc/arm-none-eabi/4.8.3/../../../../arm-none-eabi/lib/armv6-m\libm.a(lib_a-s_fpclassify.o)
                                                  C:/Users/Ege/DOCUME~1/MATLAB/R2020b/ARDUIN~1/ARDUIN~1/FASTER~2\libcore.a(Print.o)
                                                  c:/programdata/matlab/supportpackages/r2020b/3p.instrset/arduinoide.instrset/tools/arm-none-eabi-gcc/4.8.3-2014q1/bin/../lib/gcc/arm-none-eabi/4.8.3/../../../../arm-none-eabi/lib/armv6-m\libm.a(lib_a-w_fmod.o)
__gedf2                                           c:/programdata/matlab/supportpackages/r2020b/3p.instrset/arduinoide.instrset/tools/arm-none-eabi-gcc/4.8.3-2014q1/bin/../lib/gcc/arm-none-eabi/4.8.3/armv6-m\libgcc.a(gedf2.o)
                                                  c:/programdata/matlab/supportpackages/r2020b/3p.instrset/arduinoide.instrset/tools/arm-none-eabi-gcc/4.8.3-2014q1/bin/../lib/gcc/arm-none-eabi/4.8.3/armv6-m\libgcc.a(_arm_cmpdf2.o)
__gnu_thumb1_case_uqi                             c:/programdata/matlab/supportpackages/r2020b/3p.instrset/arduinoide.instrset/tools/arm-none-eabi-gcc/4.8.3-2014q1/bin/../lib/gcc/arm-none-eabi/4.8.3/armv6-m\libgcc.a(_thumb1_case_uqi.o)
                                                  C:/Users/Ege/DOCUME~1/MATLAB/R2020b/ARDUIN~1/ARDUIN~1/FASTER~2\libcore.a(USBCore.o)
                                                  C:/Users/Ege/DOCUME~1/MATLAB/R2020b/ARDUIN~1/ARDUIN~1/FASTER~2\libcore.a(wiring_private.o)
                                                  C:/Users/Ege/DOCUME~1/MATLAB/R2020b/ARDUIN~1/ARDUIN~1/FASTER~2\libcore.a(wiring_digital.o)
                                                  C:/Users/Ege/DOCUME~1/MATLAB/R2020b/ARDUIN~1/ARDUIN~1/FASTER~2\libcore.a(wiring_analog.o)
                                                  xcp.o
                                                  xcp_ext_classic_trigger.o
__gtdf2                                           c:/programdata/matlab/supportpackages/r2020b/3p.instrset/arduinoide.instrset/tools/arm-none-eabi-gcc/4.8.3-2014q1/bin/../lib/gcc/arm-none-eabi/4.8.3/armv6-m\libgcc.a(gedf2.o)
__ieee754_fmod                                    c:/programdata/matlab/supportpackages/r2020b/3p.instrset/arduinoide.instrset/tools/arm-none-eabi-gcc/4.8.3-2014q1/bin/../lib/gcc/arm-none-eabi/4.8.3/../../../../arm-none-eabi/lib/armv6-m\libm.a(lib_a-e_fmod.o)
                                                  c:/programdata/matlab/supportpackages/r2020b/3p.instrset/arduinoide.instrset/tools/arm-none-eabi-gcc/4.8.3-2014q1/bin/../lib/gcc/arm-none-eabi/4.8.3/../../../../arm-none-eabi/lib/armv6-m\libm.a(lib_a-w_fmod.o)
__init_array_end                                  c:/programdata/matlab/supportpackages/r2020b/3p.instrset/arduinoide.instrset/tools/arm-none-eabi-gcc/4.8.3-2014q1/bin/../lib/gcc/arm-none-eabi/4.8.3/../../../../arm-none-eabi/lib/armv6-m\libg_s.a(lib_a-init.o)
__init_array_start                                c:/programdata/matlab/supportpackages/r2020b/3p.instrset/arduinoide.instrset/tools/arm-none-eabi-gcc/4.8.3-2014q1/bin/../lib/gcc/arm-none-eabi/4.8.3/../../../../arm-none-eabi/lib/armv6-m\libg_s.a(lib_a-init.o)
__ledf2                                           c:/programdata/matlab/supportpackages/r2020b/3p.instrset/arduinoide.instrset/tools/arm-none-eabi-gcc/4.8.3-2014q1/bin/../lib/gcc/arm-none-eabi/4.8.3/armv6-m\libgcc.a(ledf2.o)
                                                  c:/programdata/matlab/supportpackages/r2020b/3p.instrset/arduinoide.instrset/tools/arm-none-eabi-gcc/4.8.3-2014q1/bin/../lib/gcc/arm-none-eabi/4.8.3/armv6-m\libgcc.a(_arm_cmpdf2.o)
__libc_fini_array                                 c:/programdata/matlab/supportpackages/r2020b/3p.instrset/arduinoide.instrset/tools/arm-none-eabi-gcc/4.8.3-2014q1/bin/../lib/gcc/arm-none-eabi/4.8.3/../../../../arm-none-eabi/lib/armv6-m/crt0.o
__libc_init_array                                 c:/programdata/matlab/supportpackages/r2020b/3p.instrset/arduinoide.instrset/tools/arm-none-eabi-gcc/4.8.3-2014q1/bin/../lib/gcc/arm-none-eabi/4.8.3/../../../../arm-none-eabi/lib/armv6-m\libg_s.a(lib_a-init.o)
                                                  io_wrappers.o
                                                  c:/programdata/matlab/supportpackages/r2020b/3p.instrset/arduinoide.instrset/tools/arm-none-eabi-gcc/4.8.3-2014q1/bin/../lib/gcc/arm-none-eabi/4.8.3/../../../../arm-none-eabi/lib/armv6-m/crt0.o
__ltdf2                                           c:/programdata/matlab/supportpackages/r2020b/3p.instrset/arduinoide.instrset/tools/arm-none-eabi-gcc/4.8.3-2014q1/bin/../lib/gcc/arm-none-eabi/4.8.3/armv6-m\libgcc.a(ledf2.o)
__malloc_free_list                                c:/programdata/matlab/supportpackages/r2020b/3p.instrset/arduinoide.instrset/tools/arm-none-eabi-gcc/4.8.3-2014q1/bin/../lib/gcc/arm-none-eabi/4.8.3/../../../../arm-none-eabi/lib/armv6-m\libg_s.a(lib_a-nano-mallocr.o)
                                                  c:/programdata/matlab/supportpackages/r2020b/3p.instrset/arduinoide.instrset/tools/arm-none-eabi-gcc/4.8.3-2014q1/bin/../lib/gcc/arm-none-eabi/4.8.3/../../../../arm-none-eabi/lib/armv6-m\libg_s.a(lib_a-nano-freer.o)
__malloc_sbrk_start                               c:/programdata/matlab/supportpackages/r2020b/3p.instrset/arduinoide.instrset/tools/arm-none-eabi-gcc/4.8.3-2014q1/bin/../lib/gcc/arm-none-eabi/4.8.3/../../../../arm-none-eabi/lib/armv6-m\libg_s.a(lib_a-nano-mallocr.o)
__nedf2                                           c:/programdata/matlab/supportpackages/r2020b/3p.instrset/arduinoide.instrset/tools/arm-none-eabi-gcc/4.8.3-2014q1/bin/../lib/gcc/arm-none-eabi/4.8.3/armv6-m\libgcc.a(eqdf2.o)
__preinit_array_end                               c:/programdata/matlab/supportpackages/r2020b/3p.instrset/arduinoide.instrset/tools/arm-none-eabi-gcc/4.8.3-2014q1/bin/../lib/gcc/arm-none-eabi/4.8.3/../../../../arm-none-eabi/lib/armv6-m\libg_s.a(lib_a-init.o)
__preinit_array_start                             c:/programdata/matlab/supportpackages/r2020b/3p.instrset/arduinoide.instrset/tools/arm-none-eabi-gcc/4.8.3-2014q1/bin/../lib/gcc/arm-none-eabi/4.8.3/../../../../arm-none-eabi/lib/armv6-m\libg_s.a(lib_a-init.o)
__register_frame_info                             c:/programdata/matlab/supportpackages/r2020b/3p.instrset/arduinoide.instrset/tools/arm-none-eabi-gcc/4.8.3-2014q1/bin/../lib/gcc/arm-none-eabi/4.8.3/armv6-m/crtbegin.o
__sf_fake_stderr                                  c:/programdata/matlab/supportpackages/r2020b/3p.instrset/arduinoide.instrset/tools/arm-none-eabi-gcc/4.8.3-2014q1/bin/../lib/gcc/arm-none-eabi/4.8.3/../../../../arm-none-eabi/lib/armv6-m\libg_s.a(lib_a-impure.o)
__sf_fake_stdin                                   c:/programdata/matlab/supportpackages/r2020b/3p.instrset/arduinoide.instrset/tools/arm-none-eabi-gcc/4.8.3-2014q1/bin/../lib/gcc/arm-none-eabi/4.8.3/../../../../arm-none-eabi/lib/armv6-m\libg_s.a(lib_a-impure.o)
__sf_fake_stdout                                  c:/programdata/matlab/supportpackages/r2020b/3p.instrset/arduinoide.instrset/tools/arm-none-eabi-gcc/4.8.3-2014q1/bin/../lib/gcc/arm-none-eabi/4.8.3/../../../../arm-none-eabi/lib/armv6-m\libg_s.a(lib_a-impure.o)
__stack                                           c:/programdata/matlab/supportpackages/r2020b/3p.instrset/arduinoide.instrset/tools/arm-none-eabi-gcc/4.8.3-2014q1/bin/../lib/gcc/arm-none-eabi/4.8.3/../../../../arm-none-eabi/lib/armv6-m/crt0.o
__text_start__                                    C:/Users/Ege/DOCUME~1/MATLAB/R2020b/ARDUIN~1/ARDUIN~1/FASTER~2\libcore.a(Reset.o)
__udivsi3                                         c:/programdata/matlab/supportpackages/r2020b/3p.instrset/arduinoide.instrset/tools/arm-none-eabi-gcc/4.8.3-2014q1/bin/../lib/gcc/arm-none-eabi/4.8.3/armv6-m\libgcc.a(_udivsi3.o)
_dry_run                                          C:/Users/Ege/DOCUME~1/MATLAB/R2020b/ARDUIN~1/ARDUIN~1/FASTER~2\libcore.a(USBCore.o)
_exit                                             c:/programdata/matlab/supportpackages/r2020b/3p.instrset/arduinoide.instrset/tools/arm-none-eabi-gcc/4.8.3-2014q1/bin/../lib/gcc/arm-none-eabi/4.8.3/../../../../arm-none-eabi/lib/armv6-m\libnosys.a(_exit.o)
                                                  c:/programdata/matlab/supportpackages/r2020b/3p.instrset/arduinoide.instrset/tools/arm-none-eabi-gcc/4.8.3-2014q1/bin/../lib/gcc/arm-none-eabi/4.8.3/../../../../arm-none-eabi/lib/armv6-m\libg_s.a(lib_a-exit.o)
_fini                                             c:/programdata/matlab/supportpackages/r2020b/3p.instrset/arduinoide.instrset/tools/arm-none-eabi-gcc/4.8.3-2014q1/bin/../lib/gcc/arm-none-eabi/4.8.3/armv6-m/crti.o
_free_r                                           c:/programdata/matlab/supportpackages/r2020b/3p.instrset/arduinoide.instrset/tools/arm-none-eabi-gcc/4.8.3-2014q1/bin/../lib/gcc/arm-none-eabi/4.8.3/../../../../arm-none-eabi/lib/armv6-m\libg_s.a(lib_a-nano-freer.o)
                                                  c:/programdata/matlab/supportpackages/r2020b/3p.instrset/arduinoide.instrset/tools/arm-none-eabi-gcc/4.8.3-2014q1/bin/../lib/gcc/arm-none-eabi/4.8.3/../../../../arm-none-eabi/lib/armv6-m\libg_s.a(lib_a-reent.o)
                                                  c:/programdata/matlab/supportpackages/r2020b/3p.instrset/arduinoide.instrset/tools/arm-none-eabi-gcc/4.8.3-2014q1/bin/../lib/gcc/arm-none-eabi/4.8.3/../../../../arm-none-eabi/lib/armv6-m\libg_s.a(lib_a-malloc.o)
_global_impure_ptr                                c:/programdata/matlab/supportpackages/r2020b/3p.instrset/arduinoide.instrset/tools/arm-none-eabi-gcc/4.8.3-2014q1/bin/../lib/gcc/arm-none-eabi/4.8.3/../../../../arm-none-eabi/lib/armv6-m\libg_s.a(lib_a-impure.o)
                                                  c:/programdata/matlab/supportpackages/r2020b/3p.instrset/arduinoide.instrset/tools/arm-none-eabi-gcc/4.8.3-2014q1/bin/../lib/gcc/arm-none-eabi/4.8.3/../../../../arm-none-eabi/lib/armv6-m\libg_s.a(lib_a-exit.o)
_impure_ptr                                       c:/programdata/matlab/supportpackages/r2020b/3p.instrset/arduinoide.instrset/tools/arm-none-eabi-gcc/4.8.3-2014q1/bin/../lib/gcc/arm-none-eabi/4.8.3/../../../../arm-none-eabi/lib/armv6-m\libg_s.a(lib_a-impure.o)
                                                  c:/programdata/matlab/supportpackages/r2020b/3p.instrset/arduinoide.instrset/tools/arm-none-eabi-gcc/4.8.3-2014q1/bin/../lib/gcc/arm-none-eabi/4.8.3/../../../../arm-none-eabi/lib/armv6-m\libg_s.a(lib_a-reent.o)
                                                  c:/programdata/matlab/supportpackages/r2020b/3p.instrset/arduinoide.instrset/tools/arm-none-eabi-gcc/4.8.3-2014q1/bin/../lib/gcc/arm-none-eabi/4.8.3/../../../../arm-none-eabi/lib/armv6-m\libg_s.a(lib_a-malloc.o)
                                                  c:/programdata/matlab/supportpackages/r2020b/3p.instrset/arduinoide.instrset/tools/arm-none-eabi-gcc/4.8.3-2014q1/bin/../lib/gcc/arm-none-eabi/4.8.3/../../../../arm-none-eabi/lib/armv6-m\libg_s.a(lib_a-errno.o)
_init                                             c:/programdata/matlab/supportpackages/r2020b/3p.instrset/arduinoide.instrset/tools/arm-none-eabi-gcc/4.8.3-2014q1/bin/../lib/gcc/arm-none-eabi/4.8.3/armv6-m/crti.o
                                                  c:/programdata/matlab/supportpackages/r2020b/3p.instrset/arduinoide.instrset/tools/arm-none-eabi-gcc/4.8.3-2014q1/bin/../lib/gcc/arm-none-eabi/4.8.3/../../../../arm-none-eabi/lib/armv6-m\libg_s.a(lib_a-init.o)
_mainCRTStartup                                   c:/programdata/matlab/supportpackages/r2020b/3p.instrset/arduinoide.instrset/tools/arm-none-eabi-gcc/4.8.3-2014q1/bin/../lib/gcc/arm-none-eabi/4.8.3/../../../../arm-none-eabi/lib/armv6-m/crt0.o
_malloc_r                                         c:/programdata/matlab/supportpackages/r2020b/3p.instrset/arduinoide.instrset/tools/arm-none-eabi-gcc/4.8.3-2014q1/bin/../lib/gcc/arm-none-eabi/4.8.3/../../../../arm-none-eabi/lib/armv6-m\libg_s.a(lib_a-nano-mallocr.o)
                                                  c:/programdata/matlab/supportpackages/r2020b/3p.instrset/arduinoide.instrset/tools/arm-none-eabi-gcc/4.8.3-2014q1/bin/../lib/gcc/arm-none-eabi/4.8.3/../../../../arm-none-eabi/lib/armv6-m\libg_s.a(lib_a-malloc.o)
_pack_buffer                                      C:/Users/Ege/DOCUME~1/MATLAB/R2020b/ARDUIN~1/ARDUIN~1/FASTER~2\libcore.a(USBCore.o)
_pack_message                                     C:/Users/Ege/DOCUME~1/MATLAB/R2020b/ARDUIN~1/ARDUIN~1/FASTER~2\libcore.a(USBCore.o)
_pack_size                                        C:/Users/Ege/DOCUME~1/MATLAB/R2020b/ARDUIN~1/ARDUIN~1/FASTER~2\libcore.a(USBCore.o)
_reclaim_reent                                    c:/programdata/matlab/supportpackages/r2020b/3p.instrset/arduinoide.instrset/tools/arm-none-eabi-gcc/4.8.3-2014q1/bin/../lib/gcc/arm-none-eabi/4.8.3/../../../../arm-none-eabi/lib/armv6-m\libg_s.a(lib_a-reent.o)
_sbrk                                             c:/programdata/matlab/supportpackages/r2020b/3p.instrset/arduinoide.instrset/tools/arm-none-eabi-gcc/4.8.3-2014q1/bin/../lib/gcc/arm-none-eabi/4.8.3/../../../../arm-none-eabi/lib/armv6-m\libnosys.a(sbrk.o)
                                                  c:/programdata/matlab/supportpackages/r2020b/3p.instrset/arduinoide.instrset/tools/arm-none-eabi-gcc/4.8.3-2014q1/bin/../lib/gcc/arm-none-eabi/4.8.3/../../../../arm-none-eabi/lib/armv6-m\libg_s.a(lib_a-sbrkr.o)
_sbrk_r                                           c:/programdata/matlab/supportpackages/r2020b/3p.instrset/arduinoide.instrset/tools/arm-none-eabi-gcc/4.8.3-2014q1/bin/../lib/gcc/arm-none-eabi/4.8.3/../../../../arm-none-eabi/lib/armv6-m\libg_s.a(lib_a-sbrkr.o)
                                                  c:/programdata/matlab/supportpackages/r2020b/3p.instrset/arduinoide.instrset/tools/arm-none-eabi-gcc/4.8.3-2014q1/bin/../lib/gcc/arm-none-eabi/4.8.3/../../../../arm-none-eabi/lib/armv6-m\libg_s.a(lib_a-nano-mallocr.o)
_serialPeek                                       C:/Users/Ege/DOCUME~1/MATLAB/R2020b/ARDUIN~1/ARDUIN~1/FASTER~2\libcore.a(CDC.o)
_start                                            c:/programdata/matlab/supportpackages/r2020b/3p.instrset/arduinoide.instrset/tools/arm-none-eabi-gcc/4.8.3-2014q1/bin/../lib/gcc/arm-none-eabi/4.8.3/../../../../arm-none-eabi/lib/armv6-m/crt0.o
_usbConfiguration                                 C:/Users/Ege/DOCUME~1/MATLAB/R2020b/ARDUIN~1/ARDUIN~1/FASTER~2\libcore.a(USBCore.o)
_usbSetInterface                                  C:/Users/Ege/DOCUME~1/MATLAB/R2020b/ARDUIN~1/ARDUIN~1/FASTER~2\libcore.a(USBCore.o)
actualtime                                        arduinoARM_M0plusScheduler.o
analogPinHandleMap                                ArduinoPinHandleMap.o
analogRead                                        C:/Users/Ege/DOCUME~1/MATLAB/R2020b/ARDUIN~1/ARDUIN~1/FASTER~2\libcore.a(wiring_analog.o)
analogReadResolution                              C:/Users/Ege/DOCUME~1/MATLAB/R2020b/ARDUIN~1/ARDUIN~1/FASTER~2\libcore.a(wiring_analog.o)
analogReference                                   C:/Users/Ege/DOCUME~1/MATLAB/R2020b/ARDUIN~1/ARDUIN~1/FASTER~2\libcore.a(wiring_analog.o)
                                                  C:/Users/Ege/DOCUME~1/MATLAB/R2020b/ARDUIN~1/ARDUIN~1/FASTER~2\libcore.a(wiring.o)
analogWrite                                       C:/Users/Ege/DOCUME~1/MATLAB/R2020b/ARDUIN~1/ARDUIN~1/FASTER~2\libcore.a(wiring_analog.o)
                                                  MW_PWM.o
analogWriteResolution                             C:/Users/Ege/DOCUME~1/MATLAB/R2020b/ARDUIN~1/ARDUIN~1/FASTER~2\libcore.a(wiring_analog.o)
arm_cortex_m_call_thread_with_context_switch      m0m1m0plus_multitasking.o
                                                  arduinoARM_M0plusScheduler.o
atexit                                            c:/programdata/matlab/supportpackages/r2020b/3p.instrset/arduinoide.instrset/tools/arm-none-eabi-gcc/4.8.3-2014q1/bin/../lib/gcc/arm-none-eabi/4.8.3/../../../../arm-none-eabi/lib/armv6-m/crt0.o
cancelReset                                       C:/Users/Ege/DOCUME~1/MATLAB/R2020b/ARDUIN~1/ARDUIN~1/FASTER~2\libcore.a(Reset.o)
                                                  C:/Users/Ege/DOCUME~1/MATLAB/R2020b/ARDUIN~1/ARDUIN~1/FASTER~2\libcore.a(CDC.o)
cleanup_glue                                      c:/programdata/matlab/supportpackages/r2020b/3p.instrset/arduinoide.instrset/tools/arm-none-eabi-gcc/4.8.3-2014q1/bin/../lib/gcc/arm-none-eabi/4.8.3/../../../../arm-none-eabi/lib/armv6-m\libg_s.a(lib_a-reent.o)
configureArduinoARM_M0plusTimer                   arduinoARM_M0plusScheduler.o
                                                  ert_main.o
delay                                             C:/Users/Ege/DOCUME~1/MATLAB/R2020b/ARDUIN~1/ARDUIN~1/FASTER~2\libcore.a(delay.o)
                                                  C:/Users/Ege/DOCUME~1/MATLAB/R2020b/ARDUIN~1/ARDUIN~1/FASTER~2\libcore.a(CDC.o)
                                                  rtiostream_serial_daemon.o
                                                  xcp_drv_rtiostream.o
                                                  xcp_ext_common.o
                                                  xcp_ext_work.o
digitalRead                                       C:/Users/Ege/DOCUME~1/MATLAB/R2020b/ARDUIN~1/ARDUIN~1/FASTER~2\libcore.a(wiring_digital.o)
digitalWrite                                      C:/Users/Ege/DOCUME~1/MATLAB/R2020b/ARDUIN~1/ARDUIN~1/FASTER~2\libcore.a(wiring_digital.o)
                                                  C:/Users/Ege/DOCUME~1/MATLAB/R2020b/ARDUIN~1/ARDUIN~1/FASTER~2\libcore.a(variant.o)
                                                  C:/Users/Ege/DOCUME~1/MATLAB/R2020b/ARDUIN~1/ARDUIN~1/FASTER~2\libcore.a(wiring_analog.o)
                                                  MW_PWMDriver.o
disable_rt_OneStep                                arduinoARM_M0plusScheduler.o
                                                  ert_main.o
                                                  MW_ArduinoHWInit.o
enable_rt_OneStep                                 arduinoARM_M0plusScheduler.o
end                                               c:/programdata/matlab/supportpackages/r2020b/3p.instrset/arduinoide.instrset/tools/arm-none-eabi-gcc/4.8.3-2014q1/bin/../lib/gcc/arm-none-eabi/4.8.3/../../../../arm-none-eabi/lib/armv6-m\libnosys.a(sbrk.o)
errno                                             c:/programdata/matlab/supportpackages/r2020b/3p.instrset/arduinoide.instrset/tools/arm-none-eabi-gcc/4.8.3-2014q1/bin/../lib/gcc/arm-none-eabi/4.8.3/../../../../arm-none-eabi/lib/armv6-m\libnosys.a(sbrk.o)
                                                  c:/programdata/matlab/supportpackages/r2020b/3p.instrset/arduinoide.instrset/tools/arm-none-eabi-gcc/4.8.3-2014q1/bin/../lib/gcc/arm-none-eabi/4.8.3/../../../../arm-none-eabi/lib/armv6-m\libg_s.a(lib_a-reent.o)
                                                  c:/programdata/matlab/supportpackages/r2020b/3p.instrset/arduinoide.instrset/tools/arm-none-eabi-gcc/4.8.3-2014q1/bin/../lib/gcc/arm-none-eabi/4.8.3/../../../../arm-none-eabi/lib/armv6-m\libg_s.a(lib_a-sbrkr.o)
exception_table                                   C:/Users/Ege/DOCUME~1/MATLAB/R2020b/ARDUIN~1/ARDUIN~1/FASTER~2\libcore.a(cortex_handlers.o)
exit                                              c:/programdata/matlab/supportpackages/r2020b/3p.instrset/arduinoide.instrset/tools/arm-none-eabi-gcc/4.8.3-2014q1/bin/../lib/gcc/arm-none-eabi/4.8.3/../../../../arm-none-eabi/lib/armv6-m\libg_s.a(lib_a-exit.o)
                                                  xcp_ext_work.o
                                                  c:/programdata/matlab/supportpackages/r2020b/3p.instrset/arduinoide.instrset/tools/arm-none-eabi-gcc/4.8.3-2014q1/bin/../lib/gcc/arm-none-eabi/4.8.3/../../../../arm-none-eabi/lib/armv6-m/crt0.o
fmod                                              c:/programdata/matlab/supportpackages/r2020b/3p.instrset/arduinoide.instrset/tools/arm-none-eabi-gcc/4.8.3-2014q1/bin/../lib/gcc/arm-none-eabi/4.8.3/../../../../arm-none-eabi/lib/armv6-m\libm.a(lib_a-w_fmod.o)
                                                  xcp_ext_common.o
free                                              c:/programdata/matlab/supportpackages/r2020b/3p.instrset/arduinoide.instrset/tools/arm-none-eabi-gcc/4.8.3-2014q1/bin/../lib/gcc/arm-none-eabi/4.8.3/../../../../arm-none-eabi/lib/armv6-m\libg_s.a(lib_a-malloc.o)
                                                  C:/Users/Ege/DOCUME~1/MATLAB/R2020b/ARDUIN~1/ARDUIN~1/FASTER~2\libcore.a(new.o)
                                                  C:/Users/Ege/DOCUME~1/MATLAB/R2020b/ARDUIN~1/ARDUIN~1/FASTER~2\libcore.a(USBCore.o)
g_APinDescription                                 C:/Users/Ege/DOCUME~1/MATLAB/R2020b/ARDUIN~1/ARDUIN~1/FASTER~2\libcore.a(variant.o)
                                                  C:/Users/Ege/DOCUME~1/MATLAB/R2020b/ARDUIN~1/ARDUIN~1/FASTER~2\libcore.a(Uart.o)
                                                  C:/Users/Ege/DOCUME~1/MATLAB/R2020b/ARDUIN~1/ARDUIN~1/FASTER~2\libcore.a(wiring_private.o)
                                                  C:/Users/Ege/DOCUME~1/MATLAB/R2020b/ARDUIN~1/ARDUIN~1/FASTER~2\libcore.a(wiring_digital.o)
                                                  C:/Users/Ege/DOCUME~1/MATLAB/R2020b/ARDUIN~1/ARDUIN~1/FASTER~2\libcore.a(wiring_analog.o)
                                                  MW_PWMDriver.o
g_apTCInstances                                   C:/Users/Ege/DOCUME~1/MATLAB/R2020b/ARDUIN~1/ARDUIN~1/FASTER~2\libcore.a(variant.o)
                                                  C:/Users/Ege/DOCUME~1/MATLAB/R2020b/ARDUIN~1/ARDUIN~1/FASTER~2\libcore.a(wiring_analog.o)
                                                  MW_PWMDriver.o
genericOutputPacketHandler                        xcp.o
                                                  xcp_calibration.o
                                                  xcp_daq.o
                                                  xcp_standard.o
hardware_init_hook                                c:/programdata/matlab/supportpackages/r2020b/3p.instrset/arduinoide.instrset/tools/arm-none-eabi-gcc/4.8.3-2014q1/bin/../lib/gcc/arm-none-eabi/4.8.3/../../../../arm-none-eabi/lib/armv6-m/crt0.o
init                                              C:/Users/Ege/DOCUME~1/MATLAB/R2020b/ARDUIN~1/ARDUIN~1/FASTER~2\libcore.a(wiring.o)
                                                  ert_main.o
initVariant()                                     C:/Users/Ege/DOCUME~1/MATLAB/R2020b/ARDUIN~1/ARDUIN~1/FASTER~2\libcore.a(variant.o)
initiateReset                                     C:/Users/Ege/DOCUME~1/MATLAB/R2020b/ARDUIN~1/ARDUIN~1/FASTER~2\libcore.a(Reset.o)
                                                  C:/Users/Ege/DOCUME~1/MATLAB/R2020b/ARDUIN~1/ARDUIN~1/FASTER~2\libcore.a(CDC.o)
main                                              ert_main.o
                                                  C:/Users/Ege/DOCUME~1/MATLAB/R2020b/ARDUIN~1/ARDUIN~1/FASTER~2\libcore.a(cortex_handlers.o)
                                                  c:/programdata/matlab/supportpackages/r2020b/3p.instrset/arduinoide.instrset/tools/arm-none-eabi-gcc/4.8.3-2014q1/bin/../lib/gcc/arm-none-eabi/4.8.3/../../../../arm-none-eabi/lib/armv6-m/crt0.o
malloc                                            c:/programdata/matlab/supportpackages/r2020b/3p.instrset/arduinoide.instrset/tools/arm-none-eabi-gcc/4.8.3-2014q1/bin/../lib/gcc/arm-none-eabi/4.8.3/../../../../arm-none-eabi/lib/armv6-m\libg_s.a(lib_a-malloc.o)
                                                  C:/Users/Ege/DOCUME~1/MATLAB/R2020b/ARDUIN~1/ARDUIN~1/FASTER~2\libcore.a(new.o)
                                                  C:/Users/Ege/DOCUME~1/MATLAB/R2020b/ARDUIN~1/ARDUIN~1/FASTER~2\libcore.a(USBCore.o)
matherr                                           c:/programdata/matlab/supportpackages/r2020b/3p.instrset/arduinoide.instrset/tools/arm-none-eabi-gcc/4.8.3-2014q1/bin/../lib/gcc/arm-none-eabi/4.8.3/../../../../arm-none-eabi/lib/armv6-m\libm.a(lib_a-s_matherr.o)
                                                  c:/programdata/matlab/supportpackages/r2020b/3p.instrset/arduinoide.instrset/tools/arm-none-eabi-gcc/4.8.3-2014q1/bin/../lib/gcc/arm-none-eabi/4.8.3/../../../../arm-none-eabi/lib/armv6-m\libm.a(lib_a-w_fmod.o)
memcpy                                            c:/programdata/matlab/supportpackages/r2020b/3p.instrset/arduinoide.instrset/tools/arm-none-eabi-gcc/4.8.3-2014q1/bin/../lib/gcc/arm-none-eabi/4.8.3/../../../../arm-none-eabi/lib/armv6-m\libg_s.a(lib_a-memcpy-stub.o)
                                                  C:/Users/Ege/DOCUME~1/MATLAB/R2020b/ARDUIN~1/ARDUIN~1/FASTER~2\libcore.a(USBCore.o)
                                                  C:/Users/Ege/DOCUME~1/MATLAB/R2020b/ARDUIN~1/ARDUIN~1/FASTER~2\libcore.a(wiring_analog.o)
                                                  xcp_frame_serial.o
                                                  xcp_calibration.o
                                                  xcp_daq.o
                                                  xcp_standard.o
                                                  xcp.o
                                                  MW_PWMDriver.o
memset                                            c:/programdata/matlab/supportpackages/r2020b/3p.instrset/arduinoide.instrset/tools/arm-none-eabi-gcc/4.8.3-2014q1/bin/../lib/gcc/arm-none-eabi/4.8.3/../../../../arm-none-eabi/lib/armv6-m\libg_s.a(lib_a-memset.o)
                                                  C:/Users/Ege/DOCUME~1/MATLAB/R2020b/ARDUIN~1/ARDUIN~1/FASTER~2\libcore.a(USBCore.o)
                                                  C:/Users/Ege/DOCUME~1/MATLAB/R2020b/ARDUIN~1/ARDUIN~1/FASTER~2\libcore.a(CDC.o)
                                                  C:/Users/Ege/DOCUME~1/MATLAB/R2020b/ARDUIN~1/ARDUIN~1/FASTER~2\libcore.a(Uart.o)
                                                  xcp_frame_serial.o
                                                  xcp_mem_default.o
                                                  xcp_daq.o
                                                  xcp_standard.o
                                                  xcp.o
                                                  c:/programdata/matlab/supportpackages/r2020b/3p.instrset/arduinoide.instrset/tools/arm-none-eabi-gcc/4.8.3-2014q1/bin/../lib/gcc/arm-none-eabi/4.8.3/../../../../arm-none-eabi/lib/armv6-m/crt0.o
micros                                            C:/Users/Ege/DOCUME~1/MATLAB/R2020b/ARDUIN~1/ARDUIN~1/FASTER~2\libcore.a(delay.o)
                                                  io_wrappers.o
millis                                            C:/Users/Ege/DOCUME~1/MATLAB/R2020b/ARDUIN~1/ARDUIN~1/FASTER~2\libcore.a(delay.o)
                                                  C:/Users/Ege/DOCUME~1/MATLAB/R2020b/ARDUIN~1/ARDUIN~1/FASTER~2\libcore.a(CDC.o)
                                                  io_wrappers.o
non-virtual thunk to Serial_::getDescriptor(USBSetup&) C:/Users/Ege/DOCUME~1/MATLAB/R2020b/ARDUIN~1/ARDUIN~1/FASTER~2\libcore.a(CDC.o)
non-virtual thunk to Serial_::getInterface(unsigned char*) C:/Users/Ege/DOCUME~1/MATLAB/R2020b/ARDUIN~1/ARDUIN~1/FASTER~2\libcore.a(CDC.o)
non-virtual thunk to Serial_::getShortName(char*) C:/Users/Ege/DOCUME~1/MATLAB/R2020b/ARDUIN~1/ARDUIN~1/FASTER~2\libcore.a(CDC.o)
non-virtual thunk to Serial_::handleEndpoint(int) C:/Users/Ege/DOCUME~1/MATLAB/R2020b/ARDUIN~1/ARDUIN~1/FASTER~2\libcore.a(CDC.o)
non-virtual thunk to Serial_::setup(USBSetup&)    C:/Users/Ege/DOCUME~1/MATLAB/R2020b/ARDUIN~1/ARDUIN~1/FASTER~2\libcore.a(CDC.o)
oldtime                                           arduinoARM_M0plusScheduler.o
operator delete(void*)                            C:/Users/Ege/DOCUME~1/MATLAB/R2020b/ARDUIN~1/ARDUIN~1/FASTER~2\libcore.a(new.o)
                                                  C:/Users/Ege/DOCUME~1/MATLAB/R2020b/ARDUIN~1/ARDUIN~1/FASTER~2\libcore.a(USBCore.o)
operator delete[](void*)                          C:/Users/Ege/DOCUME~1/MATLAB/R2020b/ARDUIN~1/ARDUIN~1/FASTER~2\libcore.a(new.o)
operator new(unsigned int)                        C:/Users/Ege/DOCUME~1/MATLAB/R2020b/ARDUIN~1/ARDUIN~1/FASTER~2\libcore.a(new.o)
                                                  C:/Users/Ege/DOCUME~1/MATLAB/R2020b/ARDUIN~1/ARDUIN~1/FASTER~2\libcore.a(USBCore.o)
operator new[](unsigned int)                      C:/Users/Ege/DOCUME~1/MATLAB/R2020b/ARDUIN~1/ARDUIN~1/FASTER~2\libcore.a(new.o)
pendSVHook                                        C:/Users/Ege/DOCUME~1/MATLAB/R2020b/ARDUIN~1/ARDUIN~1/FASTER~2\libcore.a(hooks.o)
physicalmotortest_B                               physicalmotortest.o
physicalmotortest_DW                              physicalmotortest.o
physicalmotortest_M                               physicalmotortest.o
                                                  ert_main.o
physicalmotortest_P                               physicalmotortest_data.o
                                                  physicalmotortest.o
physicalmotortest_initialize                      physicalmotortest.o
                                                  ert_main.o
physicalmotortest_step                            physicalmotortest.o
                                                  ert_main.o
physicalmotortest_terminate                       physicalmotortest.o
                                                  ert_main.o
pinMode                                           C:/Users/Ege/DOCUME~1/MATLAB/R2020b/ARDUIN~1/ARDUIN~1/FASTER~2\libcore.a(wiring_digital.o)
                                                  C:/Users/Ege/DOCUME~1/MATLAB/R2020b/ARDUIN~1/ARDUIN~1/FASTER~2\libcore.a(variant.o)
                                                  C:/Users/Ege/DOCUME~1/MATLAB/R2020b/ARDUIN~1/ARDUIN~1/FASTER~2\libcore.a(Uart.o)
                                                  C:/Users/Ege/DOCUME~1/MATLAB/R2020b/ARDUIN~1/ARDUIN~1/FASTER~2\libcore.a(wiring_private.o)
                                                  C:/Users/Ege/DOCUME~1/MATLAB/R2020b/ARDUIN~1/ARDUIN~1/FASTER~2\libcore.a(wiring_analog.o)
                                                  C:/Users/Ege/DOCUME~1/MATLAB/R2020b/ARDUIN~1/ARDUIN~1/FASTER~2\libcore.a(wiring.o)
                                                  io_wrappers.o
                                                  MW_PWMDriver.o
                                                  MW_PWM.o
pinPeripheral                                     C:/Users/Ege/DOCUME~1/MATLAB/R2020b/ARDUIN~1/ARDUIN~1/FASTER~2\libcore.a(wiring_private.o)
                                                  C:/Users/Ege/DOCUME~1/MATLAB/R2020b/ARDUIN~1/ARDUIN~1/FASTER~2\libcore.a(Uart.o)
                                                  C:/Users/Ege/DOCUME~1/MATLAB/R2020b/ARDUIN~1/ARDUIN~1/FASTER~2\libcore.a(wiring_analog.o)
                                                  MW_PWMDriver.o
randomTestabcCoreName()                           C:/Users/Ege/DOCUME~1/MATLAB/R2020b/ARDUIN~1/ARDUIN~1/FASTER~2/MW_RebuildSrc_Core.o
receivedSyncByteE                                 rtiostream_serial_daemon.o
resetExternalChip                                 arduinoARM_M0plusScheduler.o
rtERTExtModeSetTFinal                             xcp_ext_work.o
rtERTExtModeStartMsg                              xcp_ext_work.o
                                                  ert_main.o
rtExtModeCheckEndTrigger                          xcp_ext_work.o
                                                  ert_main.o
rtExtModeCheckInit                                xcp_ext_work.o
                                                  ert_main.o
rtExtModeOneStep                                  xcp_ext_work.o
                                                  ert_main.o
rtExtModeParseArgs                                xcp_ext_work.o
rtExtModePauseIfNeeded                            xcp_ext_work.o
rtExtModeShutdown                                 xcp_ext_work.o
                                                  ert_main.o
rtExtModeUpload                                   xcp_ext_work.o
                                                  physicalmotortest.o
rtExtModeUploadCheckTrigger                       xcp_ext_work.o
                                                  physicalmotortest.o
rtExtModeWaitForStartPkt                          xcp_ext_work.o
                                                  ert_main.o
rtIOStreamClose                                   rtiostream_serial_daemon.o
                                                  xcp_drv_rtiostream.o
rtIOStreamOpen                                    rtiostream_serial_daemon.o
                                                  xcp_drv_rtiostream.o
rtIOStreamRecv                                    rtiostream_serial_daemon.o
                                                  xcp_drv_rtiostream.o
rtIOStreamResync                                  rtiostream_serial_daemon.o
rtIOStreamSend                                    rtiostream_serial_daemon.o
                                                  xcp_drv_rtiostream.o
rtParseArgsForExtMode                             xcp_ext_work.o
                                                  ert_main.o
rtSetTFinalForExtMode                             xcp_ext_work.o
                                                  ert_main.o
rt_OneStep                                        ert_main.o
                                                  arduinoARM_M0plusScheduler.o
rtcDisable()                                      arduinoARM_M0plusScheduler.o
runModel                                          ert_main.o
sercom0                                           C:/Users/Ege/DOCUME~1/MATLAB/R2020b/ARDUIN~1/ARDUIN~1/FASTER~2\libcore.a(variant.o)
sercom1                                           C:/Users/Ege/DOCUME~1/MATLAB/R2020b/ARDUIN~1/ARDUIN~1/FASTER~2\libcore.a(variant.o)
sercom2                                           C:/Users/Ege/DOCUME~1/MATLAB/R2020b/ARDUIN~1/ARDUIN~1/FASTER~2\libcore.a(variant.o)
sercom3                                           C:/Users/Ege/DOCUME~1/MATLAB/R2020b/ARDUIN~1/ARDUIN~1/FASTER~2\libcore.a(variant.o)
sercom4                                           C:/Users/Ege/DOCUME~1/MATLAB/R2020b/ARDUIN~1/ARDUIN~1/FASTER~2\libcore.a(variant.o)
sercom5                                           C:/Users/Ege/DOCUME~1/MATLAB/R2020b/ARDUIN~1/ARDUIN~1/FASTER~2\libcore.a(variant.o)
setPWMHandle                                      MW_PWM.o
software_init_hook                                c:/programdata/matlab/supportpackages/r2020b/3p.instrset/arduinoide.instrset/tools/arm-none-eabi-gcc/4.8.3-2014q1/bin/../lib/gcc/arm-none-eabi/4.8.3/../../../../arm-none-eabi/lib/armv6-m/crt0.o
stopRequested                                     ert_main.o
strlen                                            c:/programdata/matlab/supportpackages/r2020b/3p.instrset/arduinoide.instrset/tools/arm-none-eabi-gcc/4.8.3-2014q1/bin/../lib/gcc/arm-none-eabi/4.8.3/../../../../arm-none-eabi/lib/armv6-m\libg_s.a(lib_a-strlen.o)
                                                  C:/Users/Ege/DOCUME~1/MATLAB/R2020b/ARDUIN~1/ARDUIN~1/FASTER~2\libcore.a(Print.o)
                                                  C:/Users/Ege/DOCUME~1/MATLAB/R2020b/ARDUIN~1/ARDUIN~1/FASTER~2\libcore.a(USBCore.o)
svcHook                                           C:/Users/Ege/DOCUME~1/MATLAB/R2020b/ARDUIN~1/ARDUIN~1/FASTER~2\libcore.a(hooks.o)
sysTickHook                                       C:/Users/Ege/DOCUME~1/MATLAB/R2020b/ARDUIN~1/ARDUIN~1/FASTER~2\libcore.a(hooks.o)
                                                  C:/Users/Ege/DOCUME~1/MATLAB/R2020b/ARDUIN~1/ARDUIN~1/FASTER~2\libcore.a(cortex_handlers.o)
sys_arch_protect                                  sys_arch.o
                                                  xcp_mem_default.o
                                                  xcp_transport.o
                                                  xcp_daq.o
sys_arch_unprotect                                sys_arch.o
                                                  xcp_mem_default.o
                                                  xcp_transport.o
                                                  xcp_daq.o
tickReset                                         C:/Users/Ege/DOCUME~1/MATLAB/R2020b/ARDUIN~1/ARDUIN~1/FASTER~2\libcore.a(Reset.o)
                                                  C:/Users/Ege/DOCUME~1/MATLAB/R2020b/ARDUIN~1/ARDUIN~1/FASTER~2\libcore.a(delay.o)
usbd                                              C:/Users/Ege/DOCUME~1/MATLAB/R2020b/ARDUIN~1/ARDUIN~1/FASTER~2\libcore.a(USBCore.o)
                                                  C:/Users/Ege/DOCUME~1/MATLAB/R2020b/ARDUIN~1/ARDUIN~1/FASTER~2\libcore.a(CDC.o)
vtable for DoubleBufferedEPOutHandler             C:/Users/Ege/DOCUME~1/MATLAB/R2020b/ARDUIN~1/ARDUIN~1/FASTER~2\libcore.a(USBCore.o)
vtable for EPHandler                              C:/Users/Ege/DOCUME~1/MATLAB/R2020b/ARDUIN~1/ARDUIN~1/FASTER~2\libcore.a(USBCore.o)
vtable for PluggableUSBModule                     C:/Users/Ege/DOCUME~1/MATLAB/R2020b/ARDUIN~1/ARDUIN~1/FASTER~2\libcore.a(CDC.o)
vtable for Print                                  C:/Users/Ege/DOCUME~1/MATLAB/R2020b/ARDUIN~1/ARDUIN~1/FASTER~2\libcore.a(Print.o)
vtable for Serial_                                C:/Users/Ege/DOCUME~1/MATLAB/R2020b/ARDUIN~1/ARDUIN~1/FASTER~2\libcore.a(CDC.o)
vtable for Stream                                 C:/Users/Ege/DOCUME~1/MATLAB/R2020b/ARDUIN~1/ARDUIN~1/FASTER~2\libcore.a(Uart.o)
                                                  C:/Users/Ege/DOCUME~1/MATLAB/R2020b/ARDUIN~1/ARDUIN~1/FASTER~2\libcore.a(CDC.o)
vtable for Uart                                   C:/Users/Ege/DOCUME~1/MATLAB/R2020b/ARDUIN~1/ARDUIN~1/FASTER~2\libcore.a(Uart.o)
xcpCalibrationExtendedInit                        xcp_calibration.o
xcpCalibrationExtendedReset                       xcp_calibration.o
xcpCalibrationGetPacketLookup                     xcp_calibration.o
                                                  xcp.o
xcpCalibrationInit                                xcp_calibration.o
                                                  xcp.o
xcpCalibrationReset                               xcp_calibration.o
                                                  xcp.o
xcpCalibrationSetPacketLookup                     xcp_calibration.o
xcpClassicTriggerArmRequest                       xcp_ext_classic_trigger.o
xcpClassicTriggerCancelRequest                    xcp_ext_classic_trigger.o
xcpClassicTriggerDelay                            xcp_ext_classic_trigger.o
xcpClassicTriggerDirection                        xcp_ext_classic_trigger.o
xcpClassicTriggerDuration                         xcp_ext_classic_trigger.o
xcpClassicTriggerEventId                          xcp_ext_classic_trigger.o
xcpClassicTriggerHoldOff                          xcp_ext_classic_trigger.o
xcpClassicTriggerLevel                            xcp_ext_classic_trigger.o
xcpClassicTriggerMode                             xcp_ext_classic_trigger.o
xcpClassicTriggerSignalAddress                    xcp_ext_classic_trigger.o
xcpClassicTriggerSignalAddressExtension           xcp_ext_classic_trigger.o
xcpClassicTriggerSource                           xcp_ext_classic_trigger.o
xcpClassicTriggerStatus                           xcp_ext_classic_trigger.o
xcpCurrentSimulationTimeInMs                      xcp_ext_common.o
xcpDaqEvent                                       xcp_daq.o
                                                  xcp.o
xcpDaqExtendedInit                                xcp_daq.o
xcpDaqExtendedReset                               xcp_daq.o
xcpDaqGetPacketLookup                             xcp_daq.o
                                                  xcp.o
xcpDaqInit                                        xcp_daq.o
                                                  xcp.o
xcpDaqReset                                       xcp_daq.o
                                                  xcp.o
xcpDaqSetPacketLookup                             xcp_daq.o
xcpDrvClose                                       xcp_drv_rtiostream.o
                                                  xcp_frame_serial.o
xcpDrvIoctl                                       xcp_drv_rtiostream.o
                                                  xcp_frame_serial.o
xcpDrvOpen                                        xcp_drv_rtiostream.o
                                                  xcp_frame_serial.o
xcpDrvRecv                                        xcp_drv_rtiostream.o
                                                  xcp_frame_serial.o
xcpDrvSend                                        xcp_drv_rtiostream.o
                                                  xcp_frame_serial.o
xcpDummyDoubleVariable                            xcp_ext_common.o
xcpEvent                                          xcp.o
xcpEventExternalTimestamp                         xcp.o
                                                  xcp_ext_work.o
xcpEventNotificationReq                           xcp.o
xcpExtModeClassicTriggerEnabled                   xcp_ext_classic_trigger.o
                                                  xcp_ext_work.o
xcpExtModeClassicTriggerInit                      xcp_ext_classic_trigger.o
                                                  xcp_ext_work.o
xcpExtModeClassicTriggerReset                     xcp_ext_classic_trigger.o
                                                  xcp_ext_work.o
xcpExtModeGetUpdatedTimestamp                     xcp_ext_common.o
                                                  xcp_ext_work.o
xcpExtModeInit                                    xcp_ext_common.o
                                                  xcp_ext_work.o
xcpExtModeParseArgs                               xcp_ext_param_default_serial.o
xcpExtModeReset                                   xcp_ext_common.o
                                                  xcp_ext_work.o
xcpExtModeRunBackground                           xcp_ext_common.o
                                                  xcp_ext_work.o
xcpExtModeUpdateTime                              xcp_ext_common.o
xcpExtmodeFinalSimulationTime                     xcp_ext_common.o
                                                  xcp_ext_work.o
xcpExtmodeSimulationComplete                      xcp_ext_common.o
xcpFifoDequeue                                    xcp_fifo.o
                                                  xcp_transport.o
xcpFifoEmpty                                      xcp_fifo.o
xcpFifoEnqueue                                    xcp_fifo.o
                                                  xcp_transport.o
xcpFifoEnqueueHead                                xcp_fifo.o
                                                  xcp_transport.o
xcpFifoInit                                       xcp_fifo.o
                                                  xcp_transport.o
xcpFifoReset                                      xcp_fifo.o
                                                  xcp_transport.o
xcpFindPacket                                     xcp.o
                                                  xcp_calibration.o
                                                  xcp_daq.o
                                                  xcp_standard.o
xcpFrameCreateMsg                                 xcp_frame_serial.o
                                                  xcp_transport.o
xcpFrameExtractPacket                             xcp_frame_serial.o
                                                  xcp_transport.o
xcpFrameHeaderSize                                xcp_frame_serial.o
                                                  xcp_transport.o
xcpFrameInit                                      xcp_frame_serial.o
                                                  xcp_transport.o
xcpFrameMaxCtoSize                                xcp_frame_serial.o
                                                  xcp_transport.o
xcpFrameMaxDtoSize                                xcp_frame_serial.o
                                                  xcp_transport.o
xcpFrameMsgRecv                                   xcp_frame_serial.o
                                                  xcp_transport.o
xcpFrameMsgSend                                   xcp_frame_serial.o
                                                  xcp_transport.o
xcpFrameReset                                     xcp_frame_serial.o
                                                  xcp_transport.o
xcpFrameRestart                                   xcp_frame_serial.o
                                                  xcp_transport.o
xcpFrameSetCtoReservedMemPoolId                   xcp_frame_serial.o
                                                  xcp_transport.o
xcpFrameTailSize                                  xcp_frame_serial.o
                                                  xcp_transport.o
xcpGetInitParameters                              xcp_ext_param_default_serial.o
                                                  xcp_ext_common.o
xcpGetStatus                                      xcp.o
                                                  xcp_ext_common.o
                                                  xcp_ext_work.o
xcpGetTimestamp                                   xcp_ext_common.o
                                                  xcp.o
xcpInit                                           xcp.o
                                                  xcp_ext_common.o
xcpMemAlloc                                       xcp_mem_default.o
                                                  xcp_daq.o
                                                  xcp.o
xcpMemAllocFromPool                               xcp_mem_default.o
                                                  xcp_frame_serial.o
                                                  xcp_daq.o
                                                  xcp.o
xcpMemFree                                        xcp_mem_default.o
                                                  xcp_frame_serial.o
                                                  xcp_transport.o
                                                  xcp_daq.o
                                                  xcp.o
xcpMemInit                                        xcp_mem_default.o
                                                  xcp_transport.o
xcpMemReservedPoolCreate                          xcp_mem_default.o
                                                  xcp_transport.o
                                                  xcp_daq.o
xcpMemReservedPoolDestroy                         xcp_mem_default.o
                                                  xcp_transport.o
                                                  xcp_daq.o
xcpMemReset                                       xcp_mem_default.o
                                                  xcp_transport.o
xcpModelChecksum0                                 xcp_ext_common.o
                                                  xcp_ext_work.o
xcpModelChecksum1                                 xcp_ext_common.o
                                                  xcp_ext_work.o
xcpModelChecksum2                                 xcp_ext_common.o
                                                  xcp_ext_work.o
xcpModelChecksum3                                 xcp_ext_common.o
                                                  xcp_ext_work.o
xcpModelIntegerCode                               xcp_ext_common.o
                                                  xcp_ext_work.o
xcpModelStartRequest                              xcp_ext_common.o
                                                  xcp_ext_work.o
xcpModelStatus                                    xcp_ext_common.o
                                                  xcp_ext_work.o
xcpModelStopRequest                               xcp_ext_common.o
                                                  xcp_ext_work.o
xcpRemoteServiceReq                               xcp.o
xcpReset                                          xcp.o
                                                  xcp_ext_common.o
xcpResetDaqListStatus                             xcp_daq.o
                                                  xcp_standard.o
xcpResourceProtectionClearMask                    xcp.o
xcpResourceProtectionSetMask                      xcp.o
xcpResourceProtectionStatusGet                    xcp.o
                                                  xcp_standard.o
xcpResourceProtectionStatusSet                    xcp.o
xcpRun                                            xcp.o
                                                  xcp_ext_common.o
xcpSessionConfigurationIdGet                      xcp.o
                                                  xcp_standard.o
xcpSessionConfigurationIdSet                      xcp.o
xcpSessionStatusClearMask                         xcp.o
                                                  xcp_daq.o
xcpSessionStatusGet                               xcp.o
                                                  xcp_standard.o
xcpSessionStatusSet                               xcp.o
xcpSessionStatusSetMask                           xcp.o
                                                  xcp_daq.o
xcpStandardExtendedInit                           xcp_standard.o
xcpStandardExtendedReset                          xcp_standard.o
xcpStandardGetAddressFromMta                      xcp_standard.o
                                                  xcp_calibration.o
xcpStandardGetPacketLookup                        xcp_standard.o
                                                  xcp.o
xcpStandardIncrementMta                           xcp_standard.o
                                                  xcp_calibration.o
xcpStandardInit                                   xcp_standard.o
                                                  xcp.o
xcpStandardReset                                  xcp_standard.o
                                                  xcp.o
xcpStandardSetMta                                 xcp_standard.o
                                                  xcp_calibration.o
xcpStandardSetPacketLookup                        xcp_standard.o
xcpStatusGet                                      xcp.o
xcpStatusSet                                      xcp.o
                                                  xcp_daq.o
                                                  xcp_standard.o
xcpSxiChecksum                                    xcp_frame_serial.o
xcpTransportCtoReservedMemPoolId                  xcp_transport.o
                                                  xcp.o
xcpTransportGetInitParameters                     xcp_ext_param_default_serial.o
                                                  xcp_ext_common.o
xcpTransportInit                                  xcp_transport.o
                                                  xcp_ext_common.o
xcpTransportMaxCtoSize                            xcp_transport.o
                                                  xcp_calibration.o
                                                  xcp_standard.o
                                                  xcp.o
xcpTransportMaxDtoSize                            xcp_transport.o
                                                  xcp_daq.o
                                                  xcp_standard.o
xcpTransportMsgBufferSize                         xcp_transport.o
                                                  xcp_daq.o
                                                  xcp.o
xcpTransportPacketOffset                          xcp_transport.o
                                                  xcp_daq.o
                                                  xcp.o
xcpTransportReset                                 xcp_transport.o
                                                  xcp_ext_common.o
xcpTransportRestart                               xcp_transport.o
                                                  xcp_daq.o
xcpTransportResynch                               xcp_transport.o
                                                  xcp_standard.o
xcpTransportRx                                    xcp_transport.o
                                                  xcp_ext_common.o
xcpTransportRxPacketGet                           xcp_transport.o
                                                  xcp.o
xcpTransportTx                                    xcp_transport.o
                                                  xcp_ext_common.o
xcpTransportTxPacketSet                           xcp_transport.o
                                                  xcp_daq.o
                                                  xcp.o
xcp_void_printf                                   xcp_ext_common.o
yield                                             C:/Users/Ege/DOCUME~1/MATLAB/R2020b/ARDUIN~1/ARDUIN~1/FASTER~2\libcore.a(hooks.o)
                                                  C:/Users/Ege/DOCUME~1/MATLAB/R2020b/ARDUIN~1/ARDUIN~1/FASTER~2\libcore.a(delay.o)
